
calibration.elf:     file format elf32-littleriscv


Disassembly of section .text:

10000000 <_ftext>:
10000000:	0b00006f          	j	100000b0 <crt_init>
10000004:	00000013          	nop
10000008:	00000013          	nop
1000000c:	00000013          	nop
10000010:	00000013          	nop
10000014:	00000013          	nop
10000018:	00000013          	nop
1000001c:	00000013          	nop

10000020 <trap_entry>:
10000020:	fe112e23          	sw	ra,-4(sp)
10000024:	fe512c23          	sw	t0,-8(sp)
10000028:	fe612a23          	sw	t1,-12(sp)
1000002c:	fe712823          	sw	t2,-16(sp)
10000030:	fea12623          	sw	a0,-20(sp)
10000034:	feb12423          	sw	a1,-24(sp)
10000038:	fec12223          	sw	a2,-28(sp)
1000003c:	fed12023          	sw	a3,-32(sp)
10000040:	fce12e23          	sw	a4,-36(sp)
10000044:	fcf12c23          	sw	a5,-40(sp)
10000048:	fd012a23          	sw	a6,-44(sp)
1000004c:	fd112823          	sw	a7,-48(sp)
10000050:	fdc12623          	sw	t3,-52(sp)
10000054:	fdd12423          	sw	t4,-56(sp)
10000058:	fde12223          	sw	t5,-60(sp)
1000005c:	fdf12023          	sw	t6,-64(sp)
10000060:	fc010113          	addi	sp,sp,-64
10000064:	110000ef          	jal	ra,10000174 <isr>
10000068:	03c12083          	lw	ra,60(sp)
1000006c:	03812283          	lw	t0,56(sp)
10000070:	03412303          	lw	t1,52(sp)
10000074:	03012383          	lw	t2,48(sp)
10000078:	02c12503          	lw	a0,44(sp)
1000007c:	02812583          	lw	a1,40(sp)
10000080:	02412603          	lw	a2,36(sp)
10000084:	02012683          	lw	a3,32(sp)
10000088:	01c12703          	lw	a4,28(sp)
1000008c:	01812783          	lw	a5,24(sp)
10000090:	01412803          	lw	a6,20(sp)
10000094:	01012883          	lw	a7,16(sp)
10000098:	00c12e03          	lw	t3,12(sp)
1000009c:	00812e83          	lw	t4,8(sp)
100000a0:	00412f03          	lw	t5,4(sp)
100000a4:	00012f83          	lw	t6,0(sp)
100000a8:	04010113          	addi	sp,sp,64
100000ac:	30200073          	mret

100000b0 <crt_init>:
100000b0:	40000113          	li	sp,1024
100000b4:	00000517          	auipc	a0,0x0
100000b8:	f6c50513          	addi	a0,a0,-148 # 10000020 <trap_entry>
100000bc:	30551073          	csrw	mtvec,a0

100000c0 <data_init>:
100000c0:	00000513          	li	a0,0
100000c4:	00000593          	li	a1,0
100000c8:	00003617          	auipc	a2,0x3
100000cc:	93860613          	addi	a2,a2,-1736 # 10002a00 <_etext>

100000d0 <data_loop>:
100000d0:	00b50c63          	beq	a0,a1,100000e8 <bss_init>
100000d4:	00062683          	lw	a3,0(a2)
100000d8:	00d52023          	sw	a3,0(a0)
100000dc:	00450513          	addi	a0,a0,4
100000e0:	00460613          	addi	a2,a2,4
100000e4:	fedff06f          	j	100000d0 <data_loop>

100000e8 <bss_init>:
100000e8:	00000513          	li	a0,0
100000ec:	00800593          	li	a1,8

100000f0 <bss_loop>:
100000f0:	00b50863          	beq	a0,a1,10000100 <bss_done>
100000f4:	00052023          	sw	zero,0(a0)
100000f8:	00450513          	addi	a0,a0,4
100000fc:	ff5ff06f          	j	100000f0 <bss_loop>

10000100 <bss_done>:
10000100:	00001537          	lui	a0,0x1
10000104:	88050513          	addi	a0,a0,-1920 # 880 <_fstack+0x480>
10000108:	30451073          	csrw	mie,a0
1000010c:	659000ef          	jal	ra,10000f64 <main>

10000110 <infinit_loop>:
10000110:	0000006f          	j	10000110 <infinit_loop>

10000114 <flush_cpu_icache>:
10000114:	ff010113          	addi	sp,sp,-16
10000118:	00812623          	sw	s0,12(sp)
1000011c:	01010413          	addi	s0,sp,16
10000120:	00000013          	nop
10000124:	00c12403          	lw	s0,12(sp)
10000128:	01010113          	addi	sp,sp,16
1000012c:	00008067          	ret

10000130 <flush_cpu_dcache>:
10000130:	ff010113          	addi	sp,sp,-16
10000134:	00812623          	sw	s0,12(sp)
10000138:	01010413          	addi	s0,sp,16
1000013c:	00000013          	nop
10000140:	00c12403          	lw	s0,12(sp)
10000144:	01010113          	addi	sp,sp,16
10000148:	00008067          	ret

1000014c <irq_setmask>:
1000014c:	fe010113          	addi	sp,sp,-32
10000150:	00812e23          	sw	s0,28(sp)
10000154:	02010413          	addi	s0,sp,32
10000158:	fea42623          	sw	a0,-20(s0)
1000015c:	fec42783          	lw	a5,-20(s0)
10000160:	bc079073          	csrw	0xbc0,a5
10000164:	00000013          	nop
10000168:	01c12403          	lw	s0,28(sp)
1000016c:	02010113          	addi	sp,sp,32
10000170:	00008067          	ret

10000174 <isr>:
10000174:	ff010113          	addi	sp,sp,-16
10000178:	00112623          	sw	ra,12(sp)
1000017c:	00812423          	sw	s0,8(sp)
10000180:	01010413          	addi	s0,sp,16
10000184:	00000513          	li	a0,0
10000188:	fc5ff0ef          	jal	ra,1000014c <irq_setmask>
1000018c:	f00057b7          	lui	a5,0xf0005
10000190:	01c78793          	addi	a5,a5,28 # f000501c <_etext+0xe000261c>
10000194:	0007a023          	sw	zero,0(a5)
10000198:	f00057b7          	lui	a5,0xf0005
1000019c:	00c78793          	addi	a5,a5,12 # f000500c <_etext+0xe000260c>
100001a0:	00100713          	li	a4,1
100001a4:	00e7a023          	sw	a4,0(a5)
100001a8:	f00057b7          	lui	a5,0xf0005
100001ac:	01078793          	addi	a5,a5,16 # f0005010 <_etext+0xe0002610>
100001b0:	0007a783          	lw	a5,0(a5)
100001b4:	00079863          	bnez	a5,100001c4 <isr+0x50>
100001b8:	00100713          	li	a4,1
100001bc:	00e01023          	sh	a4,0(zero) # 0 <__DYNAMIC>
100001c0:	0180006f          	j	100001d8 <isr+0x64>
100001c4:	f00057b7          	lui	a5,0xf0005
100001c8:	01c78793          	addi	a5,a5,28 # f000501c <_etext+0xe000261c>
100001cc:	00100713          	li	a4,1
100001d0:	00e7a023          	sw	a4,0(a5)
100001d4:	00000013          	nop
100001d8:	00c12083          	lw	ra,12(sp)
100001dc:	00812403          	lw	s0,8(sp)
100001e0:	01010113          	addi	sp,sp,16
100001e4:	00008067          	ret

100001e8 <flush_cpu_icache>:
100001e8:	ff010113          	addi	sp,sp,-16
100001ec:	00812623          	sw	s0,12(sp)
100001f0:	01010413          	addi	s0,sp,16
100001f4:	00000013          	nop
100001f8:	00c12403          	lw	s0,12(sp)
100001fc:	01010113          	addi	sp,sp,16
10000200:	00008067          	ret

10000204 <flush_cpu_dcache>:
10000204:	ff010113          	addi	sp,sp,-16
10000208:	00812623          	sw	s0,12(sp)
1000020c:	01010413          	addi	s0,sp,16
10000210:	00000013          	nop
10000214:	00c12403          	lw	s0,12(sp)
10000218:	01010113          	addi	sp,sp,16
1000021c:	00008067          	ret

10000220 <configure_io>:
10000220:	f8010113          	addi	sp,sp,-128
10000224:	06812e23          	sw	s0,124(sp)
10000228:	08010413          	addi	s0,sp,128
1000022c:	fe040723          	sb	zero,-18(s0)
10000230:	0440006f          	j	10000274 <configure_io+0x54>
10000234:	fee44783          	lbu	a5,-18(s0)
10000238:	00279713          	slli	a4,a5,0x2
1000023c:	260007b7          	lui	a5,0x26000
10000240:	02478793          	addi	a5,a5,36 # 26000024 <_etext+0x15ffd624>
10000244:	00f707b3          	add	a5,a4,a5
10000248:	0007a703          	lw	a4,0(a5)
1000024c:	fee44783          	lbu	a5,-18(s0)
10000250:	01071713          	slli	a4,a4,0x10
10000254:	01075713          	srli	a4,a4,0x10
10000258:	00179793          	slli	a5,a5,0x1
1000025c:	ff040693          	addi	a3,s0,-16
10000260:	00f687b3          	add	a5,a3,a5
10000264:	f8e79823          	sh	a4,-112(a5)
10000268:	fee44783          	lbu	a5,-18(s0)
1000026c:	00178793          	addi	a5,a5,1
10000270:	fef40723          	sb	a5,-18(s0)
10000274:	fee44703          	lbu	a4,-18(s0)
10000278:	02500793          	li	a5,37
1000027c:	fae7fce3          	bgeu	a5,a4,10000234 <configure_io+0x14>
10000280:	fe040723          	sb	zero,-18(s0)
10000284:	0200006f          	j	100002a4 <configure_io+0x84>
10000288:	fee44783          	lbu	a5,-18(s0)
1000028c:	ff040713          	addi	a4,s0,-16
10000290:	00f707b3          	add	a5,a4,a5
10000294:	fc078e23          	sb	zero,-36(a5)
10000298:	fee44783          	lbu	a5,-18(s0)
1000029c:	00178793          	addi	a5,a5,1
100002a0:	fef40723          	sb	a5,-18(s0)
100002a4:	fee44703          	lbu	a4,-18(s0)
100002a8:	01e00793          	li	a5,30
100002ac:	fce7fee3          	bgeu	a5,a4,10000288 <configure_io+0x68>
100002b0:	01300793          	li	a5,19
100002b4:	fef407a3          	sb	a5,-17(s0)
100002b8:	1ac0006f          	j	10000464 <configure_io+0x244>
100002bc:	01d00793          	li	a5,29
100002c0:	fef40723          	sb	a5,-18(s0)
100002c4:	0740006f          	j	10000338 <configure_io+0x118>
100002c8:	fee44783          	lbu	a5,-18(s0)
100002cc:	ff040713          	addi	a4,s0,-16
100002d0:	00f707b3          	add	a5,a4,a5
100002d4:	fdc7c783          	lbu	a5,-36(a5)
100002d8:	00479793          	slli	a5,a5,0x4
100002dc:	01879713          	slli	a4,a5,0x18
100002e0:	41875713          	srai	a4,a4,0x18
100002e4:	fee44783          	lbu	a5,-18(s0)
100002e8:	fff78793          	addi	a5,a5,-1
100002ec:	ff040693          	addi	a3,s0,-16
100002f0:	00f687b3          	add	a5,a3,a5
100002f4:	fdc7c783          	lbu	a5,-36(a5)
100002f8:	0047d793          	srli	a5,a5,0x4
100002fc:	0ff7f793          	andi	a5,a5,255
10000300:	01879793          	slli	a5,a5,0x18
10000304:	4187d793          	srai	a5,a5,0x18
10000308:	00f767b3          	or	a5,a4,a5
1000030c:	01879713          	slli	a4,a5,0x18
10000310:	41875713          	srai	a4,a4,0x18
10000314:	fee44783          	lbu	a5,-18(s0)
10000318:	00178793          	addi	a5,a5,1
1000031c:	0ff77713          	andi	a4,a4,255
10000320:	ff040693          	addi	a3,s0,-16
10000324:	00f687b3          	add	a5,a3,a5
10000328:	fce78e23          	sb	a4,-36(a5)
1000032c:	fee44783          	lbu	a5,-18(s0)
10000330:	fff78793          	addi	a5,a5,-1
10000334:	fef40723          	sb	a5,-18(s0)
10000338:	fee44783          	lbu	a5,-18(s0)
1000033c:	f80796e3          	bnez	a5,100002c8 <configure_io+0xa8>
10000340:	fcc44783          	lbu	a5,-52(s0)
10000344:	00479793          	slli	a5,a5,0x4
10000348:	0ff7f793          	andi	a5,a5,255
1000034c:	fcf406a3          	sb	a5,-51(s0)
10000350:	fc040623          	sb	zero,-52(s0)
10000354:	fef44783          	lbu	a5,-17(s0)
10000358:	00003737          	lui	a4,0x3
1000035c:	37c70713          	addi	a4,a4,892 # 337c <_fstack+0x2f7c>
10000360:	40f757b3          	sra	a5,a4,a5
10000364:	0017f793          	andi	a5,a5,1
10000368:	0a078463          	beqz	a5,10000410 <configure_io+0x1f0>
1000036c:	01e00793          	li	a5,30
10000370:	fef40723          	sb	a5,-18(s0)
10000374:	0940006f          	j	10000408 <configure_io+0x1e8>
10000378:	fee44783          	lbu	a5,-18(s0)
1000037c:	ff040713          	addi	a4,s0,-16
10000380:	00f707b3          	add	a5,a4,a5
10000384:	fdc7c783          	lbu	a5,-36(a5)
10000388:	01879713          	slli	a4,a5,0x18
1000038c:	41875713          	srai	a4,a4,0x18
10000390:	fee44783          	lbu	a5,-18(s0)
10000394:	ff040693          	addi	a3,s0,-16
10000398:	00f687b3          	add	a5,a3,a5
1000039c:	fdc7c783          	lbu	a5,-36(a5)
100003a0:	00179793          	slli	a5,a5,0x1
100003a4:	01879693          	slli	a3,a5,0x18
100003a8:	4186d693          	srai	a3,a3,0x18
100003ac:	fee44783          	lbu	a5,-18(s0)
100003b0:	fff78793          	addi	a5,a5,-1
100003b4:	ff040613          	addi	a2,s0,-16
100003b8:	00f607b3          	add	a5,a2,a5
100003bc:	fdc7c783          	lbu	a5,-36(a5)
100003c0:	0077d793          	srli	a5,a5,0x7
100003c4:	0ff7f793          	andi	a5,a5,255
100003c8:	01879793          	slli	a5,a5,0x18
100003cc:	4187d793          	srai	a5,a5,0x18
100003d0:	00f6e7b3          	or	a5,a3,a5
100003d4:	01879793          	slli	a5,a5,0x18
100003d8:	4187d793          	srai	a5,a5,0x18
100003dc:	00f767b3          	or	a5,a4,a5
100003e0:	01879713          	slli	a4,a5,0x18
100003e4:	41875713          	srai	a4,a4,0x18
100003e8:	fee44783          	lbu	a5,-18(s0)
100003ec:	0ff77713          	andi	a4,a4,255
100003f0:	ff040693          	addi	a3,s0,-16
100003f4:	00f687b3          	add	a5,a3,a5
100003f8:	fce78e23          	sb	a4,-36(a5)
100003fc:	fee44783          	lbu	a5,-18(s0)
10000400:	fff78793          	addi	a5,a5,-1
10000404:	fef40723          	sb	a5,-18(s0)
10000408:	fee44783          	lbu	a5,-18(s0)
1000040c:	f60796e3          	bnez	a5,10000378 <configure_io+0x158>
10000410:	fef44783          	lbu	a5,-17(s0)
10000414:	00179793          	slli	a5,a5,0x1
10000418:	ff040713          	addi	a4,s0,-16
1000041c:	00f707b3          	add	a5,a4,a5
10000420:	f907d783          	lhu	a5,-112(a5)
10000424:	fef41623          	sh	a5,-20(s0)
10000428:	fcd44703          	lbu	a4,-51(s0)
1000042c:	fec45783          	lhu	a5,-20(s0)
10000430:	0087d793          	srli	a5,a5,0x8
10000434:	01079793          	slli	a5,a5,0x10
10000438:	0107d793          	srli	a5,a5,0x10
1000043c:	0ff7f793          	andi	a5,a5,255
10000440:	00f767b3          	or	a5,a4,a5
10000444:	0ff7f793          	andi	a5,a5,255
10000448:	fcf406a3          	sb	a5,-51(s0)
1000044c:	fec45783          	lhu	a5,-20(s0)
10000450:	0ff7f793          	andi	a5,a5,255
10000454:	fcf40623          	sb	a5,-52(s0)
10000458:	fef44783          	lbu	a5,-17(s0)
1000045c:	fff78793          	addi	a5,a5,-1
10000460:	fef407a3          	sb	a5,-17(s0)
10000464:	fef44783          	lbu	a5,-17(s0)
10000468:	e4079ae3          	bnez	a5,100002bc <configure_io+0x9c>
1000046c:	fcc44783          	lbu	a5,-52(s0)
10000470:	00078713          	mv	a4,a5
10000474:	fcd44783          	lbu	a5,-51(s0)
10000478:	00879793          	slli	a5,a5,0x8
1000047c:	00f76733          	or	a4,a4,a5
10000480:	260007b7          	lui	a5,0x26000
10000484:	02478793          	addi	a5,a5,36 # 26000024 <_etext+0x15ffd624>
10000488:	00e7a023          	sw	a4,0(a5)
1000048c:	fcd44783          	lbu	a5,-51(s0)
10000490:	0057d793          	srli	a5,a5,0x5
10000494:	0ff7f793          	andi	a5,a5,255
10000498:	00078713          	mv	a4,a5
1000049c:	fce44783          	lbu	a5,-50(s0)
100004a0:	00379793          	slli	a5,a5,0x3
100004a4:	00f76733          	or	a4,a4,a5
100004a8:	fcf44783          	lbu	a5,-49(s0)
100004ac:	00b79793          	slli	a5,a5,0xb
100004b0:	00f76733          	or	a4,a4,a5
100004b4:	260007b7          	lui	a5,0x26000
100004b8:	02878793          	addi	a5,a5,40 # 26000028 <_etext+0x15ffd628>
100004bc:	00e7a023          	sw	a4,0(a5)
100004c0:	fcf44783          	lbu	a5,-49(s0)
100004c4:	0027d793          	srli	a5,a5,0x2
100004c8:	0ff7f793          	andi	a5,a5,255
100004cc:	00078713          	mv	a4,a5
100004d0:	fd044783          	lbu	a5,-48(s0)
100004d4:	00679793          	slli	a5,a5,0x6
100004d8:	00f76733          	or	a4,a4,a5
100004dc:	260007b7          	lui	a5,0x26000
100004e0:	02c78793          	addi	a5,a5,44 # 2600002c <_etext+0x15ffd62c>
100004e4:	00e7a023          	sw	a4,0(a5)
100004e8:	fd044783          	lbu	a5,-48(s0)
100004ec:	0077d793          	srli	a5,a5,0x7
100004f0:	0ff7f793          	andi	a5,a5,255
100004f4:	00078713          	mv	a4,a5
100004f8:	fd144783          	lbu	a5,-47(s0)
100004fc:	00179793          	slli	a5,a5,0x1
10000500:	00f76733          	or	a4,a4,a5
10000504:	fd244783          	lbu	a5,-46(s0)
10000508:	00979793          	slli	a5,a5,0x9
1000050c:	00f76733          	or	a4,a4,a5
10000510:	260007b7          	lui	a5,0x26000
10000514:	03078793          	addi	a5,a5,48 # 26000030 <_etext+0x15ffd630>
10000518:	00e7a023          	sw	a4,0(a5)
1000051c:	fd244783          	lbu	a5,-46(s0)
10000520:	0047d793          	srli	a5,a5,0x4
10000524:	0ff7f793          	andi	a5,a5,255
10000528:	00078713          	mv	a4,a5
1000052c:	fd344783          	lbu	a5,-45(s0)
10000530:	00479793          	slli	a5,a5,0x4
10000534:	00f76733          	or	a4,a4,a5
10000538:	fd444783          	lbu	a5,-44(s0)
1000053c:	00c79793          	slli	a5,a5,0xc
10000540:	00f76733          	or	a4,a4,a5
10000544:	260007b7          	lui	a5,0x26000
10000548:	03478793          	addi	a5,a5,52 # 26000034 <_etext+0x15ffd634>
1000054c:	00e7a023          	sw	a4,0(a5)
10000550:	fd444783          	lbu	a5,-44(s0)
10000554:	0017d793          	srli	a5,a5,0x1
10000558:	0ff7f793          	andi	a5,a5,255
1000055c:	00078713          	mv	a4,a5
10000560:	fd544783          	lbu	a5,-43(s0)
10000564:	00779793          	slli	a5,a5,0x7
10000568:	00f76733          	or	a4,a4,a5
1000056c:	260007b7          	lui	a5,0x26000
10000570:	03878793          	addi	a5,a5,56 # 26000038 <_etext+0x15ffd638>
10000574:	00e7a023          	sw	a4,0(a5)
10000578:	fd544783          	lbu	a5,-43(s0)
1000057c:	0067d793          	srli	a5,a5,0x6
10000580:	0ff7f793          	andi	a5,a5,255
10000584:	00078713          	mv	a4,a5
10000588:	fd644783          	lbu	a5,-42(s0)
1000058c:	00279793          	slli	a5,a5,0x2
10000590:	00f76733          	or	a4,a4,a5
10000594:	fd744783          	lbu	a5,-41(s0)
10000598:	00a79793          	slli	a5,a5,0xa
1000059c:	00f76733          	or	a4,a4,a5
100005a0:	260007b7          	lui	a5,0x26000
100005a4:	03c78793          	addi	a5,a5,60 # 2600003c <_etext+0x15ffd63c>
100005a8:	00e7a023          	sw	a4,0(a5)
100005ac:	fd744783          	lbu	a5,-41(s0)
100005b0:	0037d793          	srli	a5,a5,0x3
100005b4:	0ff7f793          	andi	a5,a5,255
100005b8:	00078713          	mv	a4,a5
100005bc:	fd844783          	lbu	a5,-40(s0)
100005c0:	00579793          	slli	a5,a5,0x5
100005c4:	00f76733          	or	a4,a4,a5
100005c8:	260007b7          	lui	a5,0x26000
100005cc:	04078793          	addi	a5,a5,64 # 26000040 <_etext+0x15ffd640>
100005d0:	00e7a023          	sw	a4,0(a5)
100005d4:	fd944783          	lbu	a5,-39(s0)
100005d8:	00078713          	mv	a4,a5
100005dc:	fda44783          	lbu	a5,-38(s0)
100005e0:	00879793          	slli	a5,a5,0x8
100005e4:	00f76733          	or	a4,a4,a5
100005e8:	260007b7          	lui	a5,0x26000
100005ec:	04478793          	addi	a5,a5,68 # 26000044 <_etext+0x15ffd644>
100005f0:	00e7a023          	sw	a4,0(a5)
100005f4:	fda44783          	lbu	a5,-38(s0)
100005f8:	0057d793          	srli	a5,a5,0x5
100005fc:	0ff7f793          	andi	a5,a5,255
10000600:	00078713          	mv	a4,a5
10000604:	fdb44783          	lbu	a5,-37(s0)
10000608:	00379793          	slli	a5,a5,0x3
1000060c:	00f76733          	or	a4,a4,a5
10000610:	fdc44783          	lbu	a5,-36(s0)
10000614:	00b79793          	slli	a5,a5,0xb
10000618:	00f76733          	or	a4,a4,a5
1000061c:	260007b7          	lui	a5,0x26000
10000620:	04878793          	addi	a5,a5,72 # 26000048 <_etext+0x15ffd648>
10000624:	00e7a023          	sw	a4,0(a5)
10000628:	fdc44783          	lbu	a5,-36(s0)
1000062c:	0027d793          	srli	a5,a5,0x2
10000630:	0ff7f793          	andi	a5,a5,255
10000634:	00078713          	mv	a4,a5
10000638:	fdd44783          	lbu	a5,-35(s0)
1000063c:	00679793          	slli	a5,a5,0x6
10000640:	00f76733          	or	a4,a4,a5
10000644:	260007b7          	lui	a5,0x26000
10000648:	04c78793          	addi	a5,a5,76 # 2600004c <_etext+0x15ffd64c>
1000064c:	00e7a023          	sw	a4,0(a5)
10000650:	fdd44783          	lbu	a5,-35(s0)
10000654:	0077d793          	srli	a5,a5,0x7
10000658:	0ff7f793          	andi	a5,a5,255
1000065c:	00078713          	mv	a4,a5
10000660:	fde44783          	lbu	a5,-34(s0)
10000664:	00179793          	slli	a5,a5,0x1
10000668:	00f76733          	or	a4,a4,a5
1000066c:	fdf44783          	lbu	a5,-33(s0)
10000670:	00979793          	slli	a5,a5,0x9
10000674:	00f76733          	or	a4,a4,a5
10000678:	260007b7          	lui	a5,0x26000
1000067c:	05078793          	addi	a5,a5,80 # 26000050 <_etext+0x15ffd650>
10000680:	00e7a023          	sw	a4,0(a5)
10000684:	fdf44783          	lbu	a5,-33(s0)
10000688:	0047d793          	srli	a5,a5,0x4
1000068c:	0ff7f793          	andi	a5,a5,255
10000690:	00078713          	mv	a4,a5
10000694:	fe044783          	lbu	a5,-32(s0)
10000698:	00479793          	slli	a5,a5,0x4
1000069c:	00f76733          	or	a4,a4,a5
100006a0:	fe144783          	lbu	a5,-31(s0)
100006a4:	00c79793          	slli	a5,a5,0xc
100006a8:	00f76733          	or	a4,a4,a5
100006ac:	260007b7          	lui	a5,0x26000
100006b0:	05478793          	addi	a5,a5,84 # 26000054 <_etext+0x15ffd654>
100006b4:	00e7a023          	sw	a4,0(a5)
100006b8:	fe144783          	lbu	a5,-31(s0)
100006bc:	0017d793          	srli	a5,a5,0x1
100006c0:	0ff7f793          	andi	a5,a5,255
100006c4:	00078713          	mv	a4,a5
100006c8:	fe244783          	lbu	a5,-30(s0)
100006cc:	00779793          	slli	a5,a5,0x7
100006d0:	00f76733          	or	a4,a4,a5
100006d4:	260007b7          	lui	a5,0x26000
100006d8:	05878793          	addi	a5,a5,88 # 26000058 <_etext+0x15ffd658>
100006dc:	00e7a023          	sw	a4,0(a5)
100006e0:	fe244783          	lbu	a5,-30(s0)
100006e4:	0067d793          	srli	a5,a5,0x6
100006e8:	0ff7f793          	andi	a5,a5,255
100006ec:	00078713          	mv	a4,a5
100006f0:	fe344783          	lbu	a5,-29(s0)
100006f4:	00279793          	slli	a5,a5,0x2
100006f8:	00f76733          	or	a4,a4,a5
100006fc:	fe444783          	lbu	a5,-28(s0)
10000700:	00a79793          	slli	a5,a5,0xa
10000704:	00f76733          	or	a4,a4,a5
10000708:	260007b7          	lui	a5,0x26000
1000070c:	05c78793          	addi	a5,a5,92 # 2600005c <_etext+0x15ffd65c>
10000710:	00e7a023          	sw	a4,0(a5)
10000714:	fe444783          	lbu	a5,-28(s0)
10000718:	0037d793          	srli	a5,a5,0x3
1000071c:	0ff7f793          	andi	a5,a5,255
10000720:	00078713          	mv	a4,a5
10000724:	fe544783          	lbu	a5,-27(s0)
10000728:	00579793          	slli	a5,a5,0x5
1000072c:	00f76733          	or	a4,a4,a5
10000730:	260007b7          	lui	a5,0x26000
10000734:	06078793          	addi	a5,a5,96 # 26000060 <_etext+0x15ffd660>
10000738:	00e7a023          	sw	a4,0(a5)
1000073c:	fe644783          	lbu	a5,-26(s0)
10000740:	00078713          	mv	a4,a5
10000744:	fe744783          	lbu	a5,-25(s0)
10000748:	00879793          	slli	a5,a5,0x8
1000074c:	00f76733          	or	a4,a4,a5
10000750:	260007b7          	lui	a5,0x26000
10000754:	06478793          	addi	a5,a5,100 # 26000064 <_etext+0x15ffd664>
10000758:	00e7a023          	sw	a4,0(a5)
1000075c:	fe744783          	lbu	a5,-25(s0)
10000760:	0057d793          	srli	a5,a5,0x5
10000764:	0ff7f793          	andi	a5,a5,255
10000768:	00078713          	mv	a4,a5
1000076c:	fe844783          	lbu	a5,-24(s0)
10000770:	00379793          	slli	a5,a5,0x3
10000774:	00f76733          	or	a4,a4,a5
10000778:	fe944783          	lbu	a5,-23(s0)
1000077c:	00b79793          	slli	a5,a5,0xb
10000780:	00f76733          	or	a4,a4,a5
10000784:	260007b7          	lui	a5,0x26000
10000788:	06878793          	addi	a5,a5,104 # 26000068 <_etext+0x15ffd668>
1000078c:	00e7a023          	sw	a4,0(a5)
10000790:	fe944783          	lbu	a5,-23(s0)
10000794:	0027d793          	srli	a5,a5,0x2
10000798:	0ff7f793          	andi	a5,a5,255
1000079c:	00078713          	mv	a4,a5
100007a0:	fea44783          	lbu	a5,-22(s0)
100007a4:	00679793          	slli	a5,a5,0x6
100007a8:	00f76733          	or	a4,a4,a5
100007ac:	260007b7          	lui	a5,0x26000
100007b0:	06c78793          	addi	a5,a5,108 # 2600006c <_etext+0x15ffd66c>
100007b4:	00e7a023          	sw	a4,0(a5)
100007b8:	fe040723          	sb	zero,-18(s0)
100007bc:	0200006f          	j	100007dc <configure_io+0x5bc>
100007c0:	fee44783          	lbu	a5,-18(s0)
100007c4:	ff040713          	addi	a4,s0,-16
100007c8:	00f707b3          	add	a5,a4,a5
100007cc:	fc078e23          	sb	zero,-36(a5)
100007d0:	fee44783          	lbu	a5,-18(s0)
100007d4:	00178793          	addi	a5,a5,1
100007d8:	fef40723          	sb	a5,-18(s0)
100007dc:	fee44703          	lbu	a4,-18(s0)
100007e0:	01e00793          	li	a5,30
100007e4:	fce7fee3          	bgeu	a5,a4,100007c0 <configure_io+0x5a0>
100007e8:	01300793          	li	a5,19
100007ec:	fef407a3          	sb	a5,-17(s0)
100007f0:	1b00006f          	j	100009a0 <configure_io+0x780>
100007f4:	01d00793          	li	a5,29
100007f8:	fef40723          	sb	a5,-18(s0)
100007fc:	0740006f          	j	10000870 <configure_io+0x650>
10000800:	fee44783          	lbu	a5,-18(s0)
10000804:	ff040713          	addi	a4,s0,-16
10000808:	00f707b3          	add	a5,a4,a5
1000080c:	fdc7c783          	lbu	a5,-36(a5)
10000810:	00479793          	slli	a5,a5,0x4
10000814:	01879713          	slli	a4,a5,0x18
10000818:	41875713          	srai	a4,a4,0x18
1000081c:	fee44783          	lbu	a5,-18(s0)
10000820:	fff78793          	addi	a5,a5,-1
10000824:	ff040693          	addi	a3,s0,-16
10000828:	00f687b3          	add	a5,a3,a5
1000082c:	fdc7c783          	lbu	a5,-36(a5)
10000830:	0047d793          	srli	a5,a5,0x4
10000834:	0ff7f793          	andi	a5,a5,255
10000838:	01879793          	slli	a5,a5,0x18
1000083c:	4187d793          	srai	a5,a5,0x18
10000840:	00f767b3          	or	a5,a4,a5
10000844:	01879713          	slli	a4,a5,0x18
10000848:	41875713          	srai	a4,a4,0x18
1000084c:	fee44783          	lbu	a5,-18(s0)
10000850:	00178793          	addi	a5,a5,1
10000854:	0ff77713          	andi	a4,a4,255
10000858:	ff040693          	addi	a3,s0,-16
1000085c:	00f687b3          	add	a5,a3,a5
10000860:	fce78e23          	sb	a4,-36(a5)
10000864:	fee44783          	lbu	a5,-18(s0)
10000868:	fff78793          	addi	a5,a5,-1
1000086c:	fef40723          	sb	a5,-18(s0)
10000870:	fee44783          	lbu	a5,-18(s0)
10000874:	f80796e3          	bnez	a5,10000800 <configure_io+0x5e0>
10000878:	fcc44783          	lbu	a5,-52(s0)
1000087c:	00479793          	slli	a5,a5,0x4
10000880:	0ff7f793          	andi	a5,a5,255
10000884:	fcf406a3          	sb	a5,-51(s0)
10000888:	fc040623          	sb	zero,-52(s0)
1000088c:	fef44783          	lbu	a5,-17(s0)
10000890:	12400713          	li	a4,292
10000894:	40f757b3          	sra	a5,a4,a5
10000898:	0017f793          	andi	a5,a5,1
1000089c:	0a078463          	beqz	a5,10000944 <configure_io+0x724>
100008a0:	01e00793          	li	a5,30
100008a4:	fef40723          	sb	a5,-18(s0)
100008a8:	0940006f          	j	1000093c <configure_io+0x71c>
100008ac:	fee44783          	lbu	a5,-18(s0)
100008b0:	ff040713          	addi	a4,s0,-16
100008b4:	00f707b3          	add	a5,a4,a5
100008b8:	fdc7c783          	lbu	a5,-36(a5)
100008bc:	01879713          	slli	a4,a5,0x18
100008c0:	41875713          	srai	a4,a4,0x18
100008c4:	fee44783          	lbu	a5,-18(s0)
100008c8:	ff040693          	addi	a3,s0,-16
100008cc:	00f687b3          	add	a5,a3,a5
100008d0:	fdc7c783          	lbu	a5,-36(a5)
100008d4:	00179793          	slli	a5,a5,0x1
100008d8:	01879693          	slli	a3,a5,0x18
100008dc:	4186d693          	srai	a3,a3,0x18
100008e0:	fee44783          	lbu	a5,-18(s0)
100008e4:	fff78793          	addi	a5,a5,-1
100008e8:	ff040613          	addi	a2,s0,-16
100008ec:	00f607b3          	add	a5,a2,a5
100008f0:	fdc7c783          	lbu	a5,-36(a5)
100008f4:	0077d793          	srli	a5,a5,0x7
100008f8:	0ff7f793          	andi	a5,a5,255
100008fc:	01879793          	slli	a5,a5,0x18
10000900:	4187d793          	srai	a5,a5,0x18
10000904:	00f6e7b3          	or	a5,a3,a5
10000908:	01879793          	slli	a5,a5,0x18
1000090c:	4187d793          	srai	a5,a5,0x18
10000910:	00f767b3          	or	a5,a4,a5
10000914:	01879713          	slli	a4,a5,0x18
10000918:	41875713          	srai	a4,a4,0x18
1000091c:	fee44783          	lbu	a5,-18(s0)
10000920:	0ff77713          	andi	a4,a4,255
10000924:	ff040693          	addi	a3,s0,-16
10000928:	00f687b3          	add	a5,a3,a5
1000092c:	fce78e23          	sb	a4,-36(a5)
10000930:	fee44783          	lbu	a5,-18(s0)
10000934:	fff78793          	addi	a5,a5,-1
10000938:	fef40723          	sb	a5,-18(s0)
1000093c:	fee44783          	lbu	a5,-18(s0)
10000940:	f60796e3          	bnez	a5,100008ac <configure_io+0x68c>
10000944:	fef44783          	lbu	a5,-17(s0)
10000948:	02600713          	li	a4,38
1000094c:	40f707b3          	sub	a5,a4,a5
10000950:	00179793          	slli	a5,a5,0x1
10000954:	ff040713          	addi	a4,s0,-16
10000958:	00f707b3          	add	a5,a4,a5
1000095c:	f907d783          	lhu	a5,-112(a5)
10000960:	fef41623          	sh	a5,-20(s0)
10000964:	fcd44703          	lbu	a4,-51(s0)
10000968:	fec45783          	lhu	a5,-20(s0)
1000096c:	0087d793          	srli	a5,a5,0x8
10000970:	01079793          	slli	a5,a5,0x10
10000974:	0107d793          	srli	a5,a5,0x10
10000978:	0ff7f793          	andi	a5,a5,255
1000097c:	00f767b3          	or	a5,a4,a5
10000980:	0ff7f793          	andi	a5,a5,255
10000984:	fcf406a3          	sb	a5,-51(s0)
10000988:	fec45783          	lhu	a5,-20(s0)
1000098c:	0ff7f793          	andi	a5,a5,255
10000990:	fcf40623          	sb	a5,-52(s0)
10000994:	fef44783          	lbu	a5,-17(s0)
10000998:	fff78793          	addi	a5,a5,-1
1000099c:	fef407a3          	sb	a5,-17(s0)
100009a0:	fef44783          	lbu	a5,-17(s0)
100009a4:	e40798e3          	bnez	a5,100007f4 <configure_io+0x5d4>
100009a8:	fcc44783          	lbu	a5,-52(s0)
100009ac:	00078713          	mv	a4,a5
100009b0:	fcd44783          	lbu	a5,-51(s0)
100009b4:	00879793          	slli	a5,a5,0x8
100009b8:	00f76733          	or	a4,a4,a5
100009bc:	260007b7          	lui	a5,0x26000
100009c0:	0b878793          	addi	a5,a5,184 # 260000b8 <_etext+0x15ffd6b8>
100009c4:	00e7a023          	sw	a4,0(a5)
100009c8:	fcd44783          	lbu	a5,-51(s0)
100009cc:	0057d793          	srli	a5,a5,0x5
100009d0:	0ff7f793          	andi	a5,a5,255
100009d4:	00078713          	mv	a4,a5
100009d8:	fce44783          	lbu	a5,-50(s0)
100009dc:	00379793          	slli	a5,a5,0x3
100009e0:	00f76733          	or	a4,a4,a5
100009e4:	fcf44783          	lbu	a5,-49(s0)
100009e8:	00b79793          	slli	a5,a5,0xb
100009ec:	00f76733          	or	a4,a4,a5
100009f0:	260007b7          	lui	a5,0x26000
100009f4:	0b478793          	addi	a5,a5,180 # 260000b4 <_etext+0x15ffd6b4>
100009f8:	00e7a023          	sw	a4,0(a5)
100009fc:	fcf44783          	lbu	a5,-49(s0)
10000a00:	0027d793          	srli	a5,a5,0x2
10000a04:	0ff7f793          	andi	a5,a5,255
10000a08:	00078713          	mv	a4,a5
10000a0c:	fd044783          	lbu	a5,-48(s0)
10000a10:	00679793          	slli	a5,a5,0x6
10000a14:	00f76733          	or	a4,a4,a5
10000a18:	260007b7          	lui	a5,0x26000
10000a1c:	0b078793          	addi	a5,a5,176 # 260000b0 <_etext+0x15ffd6b0>
10000a20:	00e7a023          	sw	a4,0(a5)
10000a24:	fd044783          	lbu	a5,-48(s0)
10000a28:	0077d793          	srli	a5,a5,0x7
10000a2c:	0ff7f793          	andi	a5,a5,255
10000a30:	00078713          	mv	a4,a5
10000a34:	fd144783          	lbu	a5,-47(s0)
10000a38:	00179793          	slli	a5,a5,0x1
10000a3c:	00f76733          	or	a4,a4,a5
10000a40:	fd244783          	lbu	a5,-46(s0)
10000a44:	00979793          	slli	a5,a5,0x9
10000a48:	00f76733          	or	a4,a4,a5
10000a4c:	260007b7          	lui	a5,0x26000
10000a50:	0ac78793          	addi	a5,a5,172 # 260000ac <_etext+0x15ffd6ac>
10000a54:	00e7a023          	sw	a4,0(a5)
10000a58:	fd244783          	lbu	a5,-46(s0)
10000a5c:	0047d793          	srli	a5,a5,0x4
10000a60:	0ff7f793          	andi	a5,a5,255
10000a64:	00078713          	mv	a4,a5
10000a68:	fd344783          	lbu	a5,-45(s0)
10000a6c:	00479793          	slli	a5,a5,0x4
10000a70:	00f76733          	or	a4,a4,a5
10000a74:	fd444783          	lbu	a5,-44(s0)
10000a78:	00c79793          	slli	a5,a5,0xc
10000a7c:	00f76733          	or	a4,a4,a5
10000a80:	260007b7          	lui	a5,0x26000
10000a84:	0a878793          	addi	a5,a5,168 # 260000a8 <_etext+0x15ffd6a8>
10000a88:	00e7a023          	sw	a4,0(a5)
10000a8c:	fd444783          	lbu	a5,-44(s0)
10000a90:	0017d793          	srli	a5,a5,0x1
10000a94:	0ff7f793          	andi	a5,a5,255
10000a98:	00078713          	mv	a4,a5
10000a9c:	fd544783          	lbu	a5,-43(s0)
10000aa0:	00779793          	slli	a5,a5,0x7
10000aa4:	00f76733          	or	a4,a4,a5
10000aa8:	260007b7          	lui	a5,0x26000
10000aac:	0a478793          	addi	a5,a5,164 # 260000a4 <_etext+0x15ffd6a4>
10000ab0:	00e7a023          	sw	a4,0(a5)
10000ab4:	fd544783          	lbu	a5,-43(s0)
10000ab8:	0067d793          	srli	a5,a5,0x6
10000abc:	0ff7f793          	andi	a5,a5,255
10000ac0:	00078713          	mv	a4,a5
10000ac4:	fd644783          	lbu	a5,-42(s0)
10000ac8:	00279793          	slli	a5,a5,0x2
10000acc:	00f76733          	or	a4,a4,a5
10000ad0:	fd744783          	lbu	a5,-41(s0)
10000ad4:	00a79793          	slli	a5,a5,0xa
10000ad8:	00f76733          	or	a4,a4,a5
10000adc:	260007b7          	lui	a5,0x26000
10000ae0:	0a078793          	addi	a5,a5,160 # 260000a0 <_etext+0x15ffd6a0>
10000ae4:	00e7a023          	sw	a4,0(a5)
10000ae8:	fd744783          	lbu	a5,-41(s0)
10000aec:	0037d793          	srli	a5,a5,0x3
10000af0:	0ff7f793          	andi	a5,a5,255
10000af4:	00078713          	mv	a4,a5
10000af8:	fd844783          	lbu	a5,-40(s0)
10000afc:	00579793          	slli	a5,a5,0x5
10000b00:	00f76733          	or	a4,a4,a5
10000b04:	260007b7          	lui	a5,0x26000
10000b08:	09c78793          	addi	a5,a5,156 # 2600009c <_etext+0x15ffd69c>
10000b0c:	00e7a023          	sw	a4,0(a5)
10000b10:	fd944783          	lbu	a5,-39(s0)
10000b14:	00078713          	mv	a4,a5
10000b18:	fda44783          	lbu	a5,-38(s0)
10000b1c:	00879793          	slli	a5,a5,0x8
10000b20:	00f76733          	or	a4,a4,a5
10000b24:	260007b7          	lui	a5,0x26000
10000b28:	09878793          	addi	a5,a5,152 # 26000098 <_etext+0x15ffd698>
10000b2c:	00e7a023          	sw	a4,0(a5)
10000b30:	fda44783          	lbu	a5,-38(s0)
10000b34:	0057d793          	srli	a5,a5,0x5
10000b38:	0ff7f793          	andi	a5,a5,255
10000b3c:	00078713          	mv	a4,a5
10000b40:	fdb44783          	lbu	a5,-37(s0)
10000b44:	00379793          	slli	a5,a5,0x3
10000b48:	00f76733          	or	a4,a4,a5
10000b4c:	fdc44783          	lbu	a5,-36(s0)
10000b50:	00b79793          	slli	a5,a5,0xb
10000b54:	00f76733          	or	a4,a4,a5
10000b58:	260007b7          	lui	a5,0x26000
10000b5c:	09478793          	addi	a5,a5,148 # 26000094 <_etext+0x15ffd694>
10000b60:	00e7a023          	sw	a4,0(a5)
10000b64:	fdc44783          	lbu	a5,-36(s0)
10000b68:	0027d793          	srli	a5,a5,0x2
10000b6c:	0ff7f793          	andi	a5,a5,255
10000b70:	00078713          	mv	a4,a5
10000b74:	fdd44783          	lbu	a5,-35(s0)
10000b78:	00679793          	slli	a5,a5,0x6
10000b7c:	00f76733          	or	a4,a4,a5
10000b80:	260007b7          	lui	a5,0x26000
10000b84:	09078793          	addi	a5,a5,144 # 26000090 <_etext+0x15ffd690>
10000b88:	00e7a023          	sw	a4,0(a5)
10000b8c:	fdd44783          	lbu	a5,-35(s0)
10000b90:	0077d793          	srli	a5,a5,0x7
10000b94:	0ff7f793          	andi	a5,a5,255
10000b98:	00078713          	mv	a4,a5
10000b9c:	fde44783          	lbu	a5,-34(s0)
10000ba0:	00179793          	slli	a5,a5,0x1
10000ba4:	00f76733          	or	a4,a4,a5
10000ba8:	fdf44783          	lbu	a5,-33(s0)
10000bac:	00979793          	slli	a5,a5,0x9
10000bb0:	00f76733          	or	a4,a4,a5
10000bb4:	260007b7          	lui	a5,0x26000
10000bb8:	08c78793          	addi	a5,a5,140 # 2600008c <_etext+0x15ffd68c>
10000bbc:	00e7a023          	sw	a4,0(a5)
10000bc0:	fdf44783          	lbu	a5,-33(s0)
10000bc4:	0047d793          	srli	a5,a5,0x4
10000bc8:	0ff7f793          	andi	a5,a5,255
10000bcc:	00078713          	mv	a4,a5
10000bd0:	fe044783          	lbu	a5,-32(s0)
10000bd4:	00479793          	slli	a5,a5,0x4
10000bd8:	00f76733          	or	a4,a4,a5
10000bdc:	fe144783          	lbu	a5,-31(s0)
10000be0:	00c79793          	slli	a5,a5,0xc
10000be4:	00f76733          	or	a4,a4,a5
10000be8:	260007b7          	lui	a5,0x26000
10000bec:	08878793          	addi	a5,a5,136 # 26000088 <_etext+0x15ffd688>
10000bf0:	00e7a023          	sw	a4,0(a5)
10000bf4:	fe144783          	lbu	a5,-31(s0)
10000bf8:	0017d793          	srli	a5,a5,0x1
10000bfc:	0ff7f793          	andi	a5,a5,255
10000c00:	00078713          	mv	a4,a5
10000c04:	fe244783          	lbu	a5,-30(s0)
10000c08:	00779793          	slli	a5,a5,0x7
10000c0c:	00f76733          	or	a4,a4,a5
10000c10:	260007b7          	lui	a5,0x26000
10000c14:	08478793          	addi	a5,a5,132 # 26000084 <_etext+0x15ffd684>
10000c18:	00e7a023          	sw	a4,0(a5)
10000c1c:	fe244783          	lbu	a5,-30(s0)
10000c20:	0067d793          	srli	a5,a5,0x6
10000c24:	0ff7f793          	andi	a5,a5,255
10000c28:	00078713          	mv	a4,a5
10000c2c:	fe344783          	lbu	a5,-29(s0)
10000c30:	00279793          	slli	a5,a5,0x2
10000c34:	00f76733          	or	a4,a4,a5
10000c38:	fe444783          	lbu	a5,-28(s0)
10000c3c:	00a79793          	slli	a5,a5,0xa
10000c40:	00f76733          	or	a4,a4,a5
10000c44:	260007b7          	lui	a5,0x26000
10000c48:	08078793          	addi	a5,a5,128 # 26000080 <_etext+0x15ffd680>
10000c4c:	00e7a023          	sw	a4,0(a5)
10000c50:	fe444783          	lbu	a5,-28(s0)
10000c54:	0037d793          	srli	a5,a5,0x3
10000c58:	0ff7f793          	andi	a5,a5,255
10000c5c:	00078713          	mv	a4,a5
10000c60:	fe544783          	lbu	a5,-27(s0)
10000c64:	00579793          	slli	a5,a5,0x5
10000c68:	00f76733          	or	a4,a4,a5
10000c6c:	260007b7          	lui	a5,0x26000
10000c70:	07c78793          	addi	a5,a5,124 # 2600007c <_etext+0x15ffd67c>
10000c74:	00e7a023          	sw	a4,0(a5)
10000c78:	fe644783          	lbu	a5,-26(s0)
10000c7c:	00078713          	mv	a4,a5
10000c80:	fe744783          	lbu	a5,-25(s0)
10000c84:	00879793          	slli	a5,a5,0x8
10000c88:	00f76733          	or	a4,a4,a5
10000c8c:	260007b7          	lui	a5,0x26000
10000c90:	07878793          	addi	a5,a5,120 # 26000078 <_etext+0x15ffd678>
10000c94:	00e7a023          	sw	a4,0(a5)
10000c98:	fe744783          	lbu	a5,-25(s0)
10000c9c:	0057d793          	srli	a5,a5,0x5
10000ca0:	0ff7f793          	andi	a5,a5,255
10000ca4:	00078713          	mv	a4,a5
10000ca8:	fe844783          	lbu	a5,-24(s0)
10000cac:	00379793          	slli	a5,a5,0x3
10000cb0:	00f76733          	or	a4,a4,a5
10000cb4:	fe944783          	lbu	a5,-23(s0)
10000cb8:	00b79793          	slli	a5,a5,0xb
10000cbc:	00f76733          	or	a4,a4,a5
10000cc0:	260007b7          	lui	a5,0x26000
10000cc4:	07478793          	addi	a5,a5,116 # 26000074 <_etext+0x15ffd674>
10000cc8:	00e7a023          	sw	a4,0(a5)
10000ccc:	fe944783          	lbu	a5,-23(s0)
10000cd0:	0027d793          	srli	a5,a5,0x2
10000cd4:	0ff7f793          	andi	a5,a5,255
10000cd8:	00078713          	mv	a4,a5
10000cdc:	fea44783          	lbu	a5,-22(s0)
10000ce0:	00679793          	slli	a5,a5,0x6
10000ce4:	00f76733          	or	a4,a4,a5
10000ce8:	260007b7          	lui	a5,0x26000
10000cec:	07078793          	addi	a5,a5,112 # 26000070 <_etext+0x15ffd670>
10000cf0:	00e7a023          	sw	a4,0(a5)
10000cf4:	260007b7          	lui	a5,0x26000
10000cf8:	00100713          	li	a4,1
10000cfc:	00e7a023          	sw	a4,0(a5) # 26000000 <_etext+0x15ffd600>
10000d00:	00000013          	nop
10000d04:	260007b7          	lui	a5,0x26000
10000d08:	0007a703          	lw	a4,0(a5) # 26000000 <_etext+0x15ffd600>
10000d0c:	00100793          	li	a5,1
10000d10:	fef70ae3          	beq	a4,a5,10000d04 <configure_io+0xae4>
10000d14:	fe040723          	sb	zero,-18(s0)
10000d18:	0400006f          	j	10000d58 <configure_io+0xb38>
10000d1c:	fee44783          	lbu	a5,-18(s0)
10000d20:	00179793          	slli	a5,a5,0x1
10000d24:	ff040713          	addi	a4,s0,-16
10000d28:	00f707b3          	add	a5,a4,a5
10000d2c:	f907d683          	lhu	a3,-112(a5)
10000d30:	fee44783          	lbu	a5,-18(s0)
10000d34:	00279713          	slli	a4,a5,0x2
10000d38:	260007b7          	lui	a5,0x26000
10000d3c:	02478793          	addi	a5,a5,36 # 26000024 <_etext+0x15ffd624>
10000d40:	00f707b3          	add	a5,a4,a5
10000d44:	00068713          	mv	a4,a3
10000d48:	00e7a023          	sw	a4,0(a5)
10000d4c:	fee44783          	lbu	a5,-18(s0)
10000d50:	00178793          	addi	a5,a5,1
10000d54:	fef40723          	sb	a5,-18(s0)
10000d58:	fee44703          	lbu	a4,-18(s0)
10000d5c:	02500793          	li	a5,37
10000d60:	fae7fee3          	bgeu	a5,a4,10000d1c <configure_io+0xafc>
10000d64:	00000013          	nop
10000d68:	07c12403          	lw	s0,124(sp)
10000d6c:	08010113          	addi	sp,sp,128
10000d70:	00008067          	ret

10000d74 <runtime_configure>:
10000d74:	fe010113          	addi	sp,sp,-32
10000d78:	00812e23          	sw	s0,28(sp)
10000d7c:	02010413          	addi	s0,sp,32
10000d80:	fe042623          	sw	zero,-20(s0)
10000d84:	0340006f          	j	10000db8 <runtime_configure+0x44>
10000d88:	fec42783          	lw	a5,-20(s0)
10000d8c:	00279713          	slli	a4,a5,0x2
10000d90:	260007b7          	lui	a5,0x26000
10000d94:	02478793          	addi	a5,a5,36 # 26000024 <_etext+0x15ffd624>
10000d98:	00f707b3          	add	a5,a4,a5
10000d9c:	00078713          	mv	a4,a5
10000da0:	000017b7          	lui	a5,0x1
10000da4:	00378793          	addi	a5,a5,3 # 1003 <_fstack+0xc03>
10000da8:	00f72023          	sw	a5,0(a4)
10000dac:	fec42783          	lw	a5,-20(s0)
10000db0:	00178793          	addi	a5,a5,1
10000db4:	fef42623          	sw	a5,-20(s0)
10000db8:	fec42703          	lw	a4,-20(s0)
10000dbc:	02500793          	li	a5,37
10000dc0:	fce7d4e3          	bge	a5,a4,10000d88 <runtime_configure+0x14>
10000dc4:	00000013          	nop
10000dc8:	01c12403          	lw	s0,28(sp)
10000dcc:	02010113          	addi	sp,sp,32
10000dd0:	00008067          	ret

10000dd4 <final_configure>:
10000dd4:	fe010113          	addi	sp,sp,-32
10000dd8:	00812e23          	sw	s0,28(sp)
10000ddc:	02010413          	addi	s0,sp,32
10000de0:	fe042623          	sw	zero,-20(s0)
10000de4:	0340006f          	j	10000e18 <final_configure+0x44>
10000de8:	fec42783          	lw	a5,-20(s0)
10000dec:	00279713          	slli	a4,a5,0x2
10000df0:	260007b7          	lui	a5,0x26000
10000df4:	02478793          	addi	a5,a5,36 # 26000024 <_etext+0x15ffd624>
10000df8:	00f707b3          	add	a5,a4,a5
10000dfc:	00078713          	mv	a4,a5
10000e00:	000027b7          	lui	a5,0x2
10000e04:	80978793          	addi	a5,a5,-2039 # 1809 <_fstack+0x1409>
10000e08:	00f72023          	sw	a5,0(a4)
10000e0c:	fec42783          	lw	a5,-20(s0)
10000e10:	00178793          	addi	a5,a5,1
10000e14:	fef42623          	sw	a5,-20(s0)
10000e18:	fec42703          	lw	a4,-20(s0)
10000e1c:	02500793          	li	a5,37
10000e20:	fce7d4e3          	bge	a5,a4,10000de8 <final_configure+0x14>
10000e24:	00000013          	nop
10000e28:	01c12403          	lw	s0,28(sp)
10000e2c:	02010113          	addi	sp,sp,32
10000e30:	00008067          	ret

10000e34 <disabled_configure>:
10000e34:	fe010113          	addi	sp,sp,-32
10000e38:	00812e23          	sw	s0,28(sp)
10000e3c:	02010413          	addi	s0,sp,32
10000e40:	fe042623          	sw	zero,-20(s0)
10000e44:	0280006f          	j	10000e6c <disabled_configure+0x38>
10000e48:	fec42783          	lw	a5,-20(s0)
10000e4c:	00279713          	slli	a4,a5,0x2
10000e50:	260007b7          	lui	a5,0x26000
10000e54:	02478793          	addi	a5,a5,36 # 26000024 <_etext+0x15ffd624>
10000e58:	00f707b3          	add	a5,a4,a5
10000e5c:	0007a023          	sw	zero,0(a5)
10000e60:	fec42783          	lw	a5,-20(s0)
10000e64:	00178793          	addi	a5,a5,1
10000e68:	fef42623          	sw	a5,-20(s0)
10000e6c:	fec42703          	lw	a4,-20(s0)
10000e70:	02500793          	li	a5,37
10000e74:	fce7dae3          	bge	a5,a4,10000e48 <disabled_configure+0x14>
10000e78:	00000013          	nop
10000e7c:	01c12403          	lw	s0,28(sp)
10000e80:	02010113          	addi	sp,sp,32
10000e84:	00008067          	ret

10000e88 <gpio_toggle>:
10000e88:	fd010113          	addi	sp,sp,-48
10000e8c:	02812623          	sw	s0,44(sp)
10000e90:	03010413          	addi	s0,sp,48
10000e94:	fca42e23          	sw	a0,-36(s0)
10000e98:	fe042423          	sw	zero,-24(s0)
10000e9c:	0100006f          	j	10000eac <gpio_toggle+0x24>
10000ea0:	fe842783          	lw	a5,-24(s0)
10000ea4:	00178793          	addi	a5,a5,1
10000ea8:	fef42423          	sw	a5,-24(s0)
10000eac:	fe842703          	lw	a4,-24(s0)
10000eb0:	1f300793          	li	a5,499
10000eb4:	fee7d6e3          	bge	a5,a4,10000ea0 <gpio_toggle+0x18>
10000eb8:	fe042623          	sw	zero,-20(s0)
10000ebc:	06c0006f          	j	10000f28 <gpio_toggle+0xa0>
10000ec0:	f00037b7          	lui	a5,0xf0003
10000ec4:	81478793          	addi	a5,a5,-2028 # f0002814 <_etext+0xdffffe14>
10000ec8:	00100713          	li	a4,1
10000ecc:	00e7a023          	sw	a4,0(a5)
10000ed0:	fe042423          	sw	zero,-24(s0)
10000ed4:	0100006f          	j	10000ee4 <gpio_toggle+0x5c>
10000ed8:	fe842783          	lw	a5,-24(s0)
10000edc:	00178793          	addi	a5,a5,1
10000ee0:	fef42423          	sw	a5,-24(s0)
10000ee4:	fe842703          	lw	a4,-24(s0)
10000ee8:	1f300793          	li	a5,499
10000eec:	fee7d6e3          	bge	a5,a4,10000ed8 <gpio_toggle+0x50>
10000ef0:	f00037b7          	lui	a5,0xf0003
10000ef4:	81478793          	addi	a5,a5,-2028 # f0002814 <_etext+0xdffffe14>
10000ef8:	0007a023          	sw	zero,0(a5)
10000efc:	fe042423          	sw	zero,-24(s0)
10000f00:	0100006f          	j	10000f10 <gpio_toggle+0x88>
10000f04:	fe842783          	lw	a5,-24(s0)
10000f08:	00178793          	addi	a5,a5,1
10000f0c:	fef42423          	sw	a5,-24(s0)
10000f10:	fe842703          	lw	a4,-24(s0)
10000f14:	1f300793          	li	a5,499
10000f18:	fee7d6e3          	bge	a5,a4,10000f04 <gpio_toggle+0x7c>
10000f1c:	fec42783          	lw	a5,-20(s0)
10000f20:	00178793          	addi	a5,a5,1
10000f24:	fef42623          	sw	a5,-20(s0)
10000f28:	fec42703          	lw	a4,-20(s0)
10000f2c:	fdc42783          	lw	a5,-36(s0)
10000f30:	f8f748e3          	blt	a4,a5,10000ec0 <gpio_toggle+0x38>
10000f34:	fe042423          	sw	zero,-24(s0)
10000f38:	0100006f          	j	10000f48 <gpio_toggle+0xc0>
10000f3c:	fe842783          	lw	a5,-24(s0)
10000f40:	00178793          	addi	a5,a5,1
10000f44:	fef42423          	sw	a5,-24(s0)
10000f48:	fe842703          	lw	a4,-24(s0)
10000f4c:	3e700793          	li	a5,999
10000f50:	fee7d6e3          	bge	a5,a4,10000f3c <gpio_toggle+0xb4>
10000f54:	00000013          	nop
10000f58:	02c12403          	lw	s0,44(sp)
10000f5c:	03010113          	addi	sp,sp,48
10000f60:	00008067          	ret

10000f64 <main>:
10000f64:	fb010113          	addi	sp,sp,-80
10000f68:	04112623          	sw	ra,76(sp)
10000f6c:	04812423          	sw	s0,72(sp)
10000f70:	05010413          	addi	s0,sp,80
10000f74:	f00037b7          	lui	a5,0xf0003
10000f78:	80078793          	addi	a5,a5,-2048 # f0002800 <_etext+0xdffffe00>
10000f7c:	00100713          	li	a4,1
10000f80:	00e7a023          	sw	a4,0(a5)
10000f84:	f00037b7          	lui	a5,0xf0003
10000f88:	80478793          	addi	a5,a5,-2044 # f0002804 <_etext+0xdffffe04>
10000f8c:	0007a023          	sw	zero,0(a5)
10000f90:	f00037b7          	lui	a5,0xf0003
10000f94:	80878793          	addi	a5,a5,-2040 # f0002808 <_etext+0xdffffe08>
10000f98:	00100713          	li	a4,1
10000f9c:	00e7a023          	sw	a4,0(a5)
10000fa0:	f00037b7          	lui	a5,0xf0003
10000fa4:	80c78793          	addi	a5,a5,-2036 # f000280c <_etext+0xdffffe0c>
10000fa8:	00100713          	li	a4,1
10000fac:	00e7a023          	sw	a4,0(a5)
10000fb0:	f00037b7          	lui	a5,0xf0003
10000fb4:	81478793          	addi	a5,a5,-2028 # f0002814 <_etext+0xdffffe14>
10000fb8:	0007a023          	sw	zero,0(a5)
10000fbc:	260007b7          	lui	a5,0x26000
10000fc0:	01078793          	addi	a5,a5,16 # 26000010 <_etext+0x15ffd610>
10000fc4:	0007a023          	sw	zero,0(a5)
10000fc8:	260007b7          	lui	a5,0x26000
10000fcc:	00c78793          	addi	a5,a5,12 # 2600000c <_etext+0x15ffd60c>
10000fd0:	0007a023          	sw	zero,0(a5)
10000fd4:	f00037b7          	lui	a5,0xf0003
10000fd8:	03478793          	addi	a5,a5,52 # f0003034 <_etext+0xe0000634>
10000fdc:	00200713          	li	a4,2
10000fe0:	00e7a023          	sw	a4,0(a5)
10000fe4:	f00037b7          	lui	a5,0xf0003
10000fe8:	00c78713          	addi	a4,a5,12 # f000300c <_etext+0xe000060c>
10000fec:	00000793          	li	a5,0
10000ff0:	00f72023          	sw	a5,0(a4)
10000ff4:	f0003737          	lui	a4,0xf0003
10000ff8:	01c70713          	addi	a4,a4,28 # f000301c <_etext+0xe000061c>
10000ffc:	00f72023          	sw	a5,0(a4)
10001000:	f00037b7          	lui	a5,0xf0003
10001004:	00878713          	addi	a4,a5,8 # f0003008 <_etext+0xe0000608>
10001008:	00000793          	li	a5,0
1000100c:	00f72023          	sw	a5,0(a4)
10001010:	f0003737          	lui	a4,0xf0003
10001014:	01870713          	addi	a4,a4,24 # f0003018 <_etext+0xe0000618>
10001018:	00f72023          	sw	a5,0(a4)
1000101c:	f00037b7          	lui	a5,0xf0003
10001020:	00478713          	addi	a4,a5,4 # f0003004 <_etext+0xe0000604>
10001024:	00000793          	li	a5,0
10001028:	00f72023          	sw	a5,0(a4)
1000102c:	f0003737          	lui	a4,0xf0003
10001030:	01470713          	addi	a4,a4,20 # f0003014 <_etext+0xe0000614>
10001034:	00f72023          	sw	a5,0(a4)
10001038:	f0003737          	lui	a4,0xf0003
1000103c:	00000793          	li	a5,0
10001040:	00f72023          	sw	a5,0(a4) # f0003000 <_etext+0xe0000600>
10001044:	f0003737          	lui	a4,0xf0003
10001048:	01070713          	addi	a4,a4,16 # f0003010 <_etext+0xe0000610>
1000104c:	00f72023          	sw	a5,0(a4)
10001050:	f00037b7          	lui	a5,0xf0003
10001054:	00478713          	addi	a4,a5,4 # f0003004 <_etext+0xe0000604>
10001058:	00300793          	li	a5,3
1000105c:	00f72023          	sw	a5,0(a4)
10001060:	f0003737          	lui	a4,0xf0003
10001064:	01470713          	addi	a4,a4,20 # f0003014 <_etext+0xe0000614>
10001068:	00f72023          	sw	a5,0(a4)
1000106c:	f00037b7          	lui	a5,0xf0003
10001070:	81478793          	addi	a5,a5,-2028 # f0002814 <_etext+0xdffffe14>
10001074:	00100713          	li	a4,1
10001078:	00e7a023          	sw	a4,0(a5)
1000107c:	fc042e23          	sw	zero,-36(s0)
10001080:	fdc42783          	lw	a5,-36(s0)
10001084:	fef42023          	sw	a5,-32(s0)
10001088:	dadff0ef          	jal	ra,10000e34 <disabled_configure>
1000108c:	260007b7          	lui	a5,0x26000
10001090:	02478793          	addi	a5,a5,36 # 26000024 <_etext+0x15ffd624>
10001094:	00001737          	lui	a4,0x1
10001098:	00370713          	addi	a4,a4,3 # 1003 <_fstack+0xc03>
1000109c:	00e7a023          	sw	a4,0(a5)
100010a0:	260007b7          	lui	a5,0x26000
100010a4:	0b878793          	addi	a5,a5,184 # 260000b8 <_etext+0x15ffd6b8>
100010a8:	00002737          	lui	a4,0x2
100010ac:	80970713          	addi	a4,a4,-2039 # 1809 <_fstack+0x1409>
100010b0:	00e7a023          	sw	a4,0(a5)
100010b4:	260007b7          	lui	a5,0x26000
100010b8:	00100713          	li	a4,1
100010bc:	00e7a023          	sw	a4,0(a5) # 26000000 <_etext+0x15ffd600>
100010c0:	00000013          	nop
100010c4:	260007b7          	lui	a5,0x26000
100010c8:	0007a703          	lw	a4,0(a5) # 26000000 <_etext+0x15ffd600>
100010cc:	00100793          	li	a5,1
100010d0:	fef70ae3          	beq	a4,a5,100010c4 <main+0x160>
100010d4:	00000013          	nop
100010d8:	260007b7          	lui	a5,0x26000
100010dc:	00c78793          	addi	a5,a5,12 # 2600000c <_etext+0x15ffd60c>
100010e0:	0007a783          	lw	a5,0(a5)
100010e4:	0017f793          	andi	a5,a5,1
100010e8:	fe0788e3          	beqz	a5,100010d8 <main+0x174>
100010ec:	fe040723          	sb	zero,-18(s0)
100010f0:	0200006f          	j	10001110 <main+0x1ac>
100010f4:	fee44783          	lbu	a5,-18(s0)
100010f8:	ff040713          	addi	a4,s0,-16
100010fc:	00f707b3          	add	a5,a4,a5
10001100:	fc078423          	sb	zero,-56(a5)
10001104:	fee44783          	lbu	a5,-18(s0)
10001108:	00178793          	addi	a5,a5,1
1000110c:	fef40723          	sb	a5,-18(s0)
10001110:	fee44703          	lbu	a4,-18(s0)
10001114:	01e00793          	li	a5,30
10001118:	fce7fee3          	bgeu	a5,a4,100010f4 <main+0x190>
1000111c:	01000793          	li	a5,16
10001120:	faf40ca3          	sb	a5,-71(s0)
10001124:	00300793          	li	a5,3
10001128:	faf40c23          	sb	a5,-72(s0)
1000112c:	fe0406a3          	sb	zero,-19(s0)
10001130:	fc040da3          	sb	zero,-37(s0)
10001134:	fe0407a3          	sb	zero,-17(s0)
10001138:	5bc0006f          	j	100016f4 <main+0x790>
1000113c:	fb844783          	lbu	a5,-72(s0)
10001140:	00078713          	mv	a4,a5
10001144:	fb944783          	lbu	a5,-71(s0)
10001148:	00879793          	slli	a5,a5,0x8
1000114c:	00f76733          	or	a4,a4,a5
10001150:	260007b7          	lui	a5,0x26000
10001154:	02478793          	addi	a5,a5,36 # 26000024 <_etext+0x15ffd624>
10001158:	00e7a023          	sw	a4,0(a5)
1000115c:	fb944783          	lbu	a5,-71(s0)
10001160:	0057d793          	srli	a5,a5,0x5
10001164:	0ff7f793          	andi	a5,a5,255
10001168:	00078713          	mv	a4,a5
1000116c:	fba44783          	lbu	a5,-70(s0)
10001170:	00379793          	slli	a5,a5,0x3
10001174:	00f76733          	or	a4,a4,a5
10001178:	fbb44783          	lbu	a5,-69(s0)
1000117c:	00b79793          	slli	a5,a5,0xb
10001180:	00f76733          	or	a4,a4,a5
10001184:	260007b7          	lui	a5,0x26000
10001188:	02878793          	addi	a5,a5,40 # 26000028 <_etext+0x15ffd628>
1000118c:	00e7a023          	sw	a4,0(a5)
10001190:	fbb44783          	lbu	a5,-69(s0)
10001194:	0027d793          	srli	a5,a5,0x2
10001198:	0ff7f793          	andi	a5,a5,255
1000119c:	00078713          	mv	a4,a5
100011a0:	fbc44783          	lbu	a5,-68(s0)
100011a4:	00679793          	slli	a5,a5,0x6
100011a8:	00f76733          	or	a4,a4,a5
100011ac:	260007b7          	lui	a5,0x26000
100011b0:	02c78793          	addi	a5,a5,44 # 2600002c <_etext+0x15ffd62c>
100011b4:	00e7a023          	sw	a4,0(a5)
100011b8:	fbc44783          	lbu	a5,-68(s0)
100011bc:	0077d793          	srli	a5,a5,0x7
100011c0:	0ff7f793          	andi	a5,a5,255
100011c4:	00078713          	mv	a4,a5
100011c8:	fbd44783          	lbu	a5,-67(s0)
100011cc:	00179793          	slli	a5,a5,0x1
100011d0:	00f76733          	or	a4,a4,a5
100011d4:	fbe44783          	lbu	a5,-66(s0)
100011d8:	00979793          	slli	a5,a5,0x9
100011dc:	00f76733          	or	a4,a4,a5
100011e0:	260007b7          	lui	a5,0x26000
100011e4:	03078793          	addi	a5,a5,48 # 26000030 <_etext+0x15ffd630>
100011e8:	00e7a023          	sw	a4,0(a5)
100011ec:	fbe44783          	lbu	a5,-66(s0)
100011f0:	0047d793          	srli	a5,a5,0x4
100011f4:	0ff7f793          	andi	a5,a5,255
100011f8:	00078713          	mv	a4,a5
100011fc:	fbf44783          	lbu	a5,-65(s0)
10001200:	00479793          	slli	a5,a5,0x4
10001204:	00f76733          	or	a4,a4,a5
10001208:	fc044783          	lbu	a5,-64(s0)
1000120c:	00c79793          	slli	a5,a5,0xc
10001210:	00f76733          	or	a4,a4,a5
10001214:	260007b7          	lui	a5,0x26000
10001218:	03478793          	addi	a5,a5,52 # 26000034 <_etext+0x15ffd634>
1000121c:	00e7a023          	sw	a4,0(a5)
10001220:	fc044783          	lbu	a5,-64(s0)
10001224:	0017d793          	srli	a5,a5,0x1
10001228:	0ff7f793          	andi	a5,a5,255
1000122c:	00078713          	mv	a4,a5
10001230:	fc144783          	lbu	a5,-63(s0)
10001234:	00779793          	slli	a5,a5,0x7
10001238:	00f76733          	or	a4,a4,a5
1000123c:	260007b7          	lui	a5,0x26000
10001240:	03878793          	addi	a5,a5,56 # 26000038 <_etext+0x15ffd638>
10001244:	00e7a023          	sw	a4,0(a5)
10001248:	fc144783          	lbu	a5,-63(s0)
1000124c:	0067d793          	srli	a5,a5,0x6
10001250:	0ff7f793          	andi	a5,a5,255
10001254:	00078713          	mv	a4,a5
10001258:	fc244783          	lbu	a5,-62(s0)
1000125c:	00279793          	slli	a5,a5,0x2
10001260:	00f76733          	or	a4,a4,a5
10001264:	fc344783          	lbu	a5,-61(s0)
10001268:	00a79793          	slli	a5,a5,0xa
1000126c:	00f76733          	or	a4,a4,a5
10001270:	260007b7          	lui	a5,0x26000
10001274:	03c78793          	addi	a5,a5,60 # 2600003c <_etext+0x15ffd63c>
10001278:	00e7a023          	sw	a4,0(a5)
1000127c:	fc344783          	lbu	a5,-61(s0)
10001280:	0037d793          	srli	a5,a5,0x3
10001284:	0ff7f793          	andi	a5,a5,255
10001288:	00078713          	mv	a4,a5
1000128c:	fc444783          	lbu	a5,-60(s0)
10001290:	00579793          	slli	a5,a5,0x5
10001294:	00f76733          	or	a4,a4,a5
10001298:	260007b7          	lui	a5,0x26000
1000129c:	04078793          	addi	a5,a5,64 # 26000040 <_etext+0x15ffd640>
100012a0:	00e7a023          	sw	a4,0(a5)
100012a4:	fc544783          	lbu	a5,-59(s0)
100012a8:	00078713          	mv	a4,a5
100012ac:	fc644783          	lbu	a5,-58(s0)
100012b0:	00879793          	slli	a5,a5,0x8
100012b4:	00f76733          	or	a4,a4,a5
100012b8:	260007b7          	lui	a5,0x26000
100012bc:	04478793          	addi	a5,a5,68 # 26000044 <_etext+0x15ffd644>
100012c0:	00e7a023          	sw	a4,0(a5)
100012c4:	fc644783          	lbu	a5,-58(s0)
100012c8:	0057d793          	srli	a5,a5,0x5
100012cc:	0ff7f793          	andi	a5,a5,255
100012d0:	00078713          	mv	a4,a5
100012d4:	fc744783          	lbu	a5,-57(s0)
100012d8:	00379793          	slli	a5,a5,0x3
100012dc:	00f76733          	or	a4,a4,a5
100012e0:	fc844783          	lbu	a5,-56(s0)
100012e4:	00b79793          	slli	a5,a5,0xb
100012e8:	00f76733          	or	a4,a4,a5
100012ec:	260007b7          	lui	a5,0x26000
100012f0:	04878793          	addi	a5,a5,72 # 26000048 <_etext+0x15ffd648>
100012f4:	00e7a023          	sw	a4,0(a5)
100012f8:	fc844783          	lbu	a5,-56(s0)
100012fc:	0027d793          	srli	a5,a5,0x2
10001300:	0ff7f793          	andi	a5,a5,255
10001304:	00078713          	mv	a4,a5
10001308:	fc944783          	lbu	a5,-55(s0)
1000130c:	00679793          	slli	a5,a5,0x6
10001310:	00f76733          	or	a4,a4,a5
10001314:	260007b7          	lui	a5,0x26000
10001318:	04c78793          	addi	a5,a5,76 # 2600004c <_etext+0x15ffd64c>
1000131c:	00e7a023          	sw	a4,0(a5)
10001320:	fc944783          	lbu	a5,-55(s0)
10001324:	0077d793          	srli	a5,a5,0x7
10001328:	0ff7f793          	andi	a5,a5,255
1000132c:	00078713          	mv	a4,a5
10001330:	fca44783          	lbu	a5,-54(s0)
10001334:	00179793          	slli	a5,a5,0x1
10001338:	00f76733          	or	a4,a4,a5
1000133c:	fcb44783          	lbu	a5,-53(s0)
10001340:	00979793          	slli	a5,a5,0x9
10001344:	00f76733          	or	a4,a4,a5
10001348:	260007b7          	lui	a5,0x26000
1000134c:	05078793          	addi	a5,a5,80 # 26000050 <_etext+0x15ffd650>
10001350:	00e7a023          	sw	a4,0(a5)
10001354:	fcb44783          	lbu	a5,-53(s0)
10001358:	0047d793          	srli	a5,a5,0x4
1000135c:	0ff7f793          	andi	a5,a5,255
10001360:	00078713          	mv	a4,a5
10001364:	fcc44783          	lbu	a5,-52(s0)
10001368:	00479793          	slli	a5,a5,0x4
1000136c:	00f76733          	or	a4,a4,a5
10001370:	fcd44783          	lbu	a5,-51(s0)
10001374:	00c79793          	slli	a5,a5,0xc
10001378:	00f76733          	or	a4,a4,a5
1000137c:	260007b7          	lui	a5,0x26000
10001380:	05478793          	addi	a5,a5,84 # 26000054 <_etext+0x15ffd654>
10001384:	00e7a023          	sw	a4,0(a5)
10001388:	fcd44783          	lbu	a5,-51(s0)
1000138c:	0017d793          	srli	a5,a5,0x1
10001390:	0ff7f793          	andi	a5,a5,255
10001394:	00078713          	mv	a4,a5
10001398:	fce44783          	lbu	a5,-50(s0)
1000139c:	00779793          	slli	a5,a5,0x7
100013a0:	00f76733          	or	a4,a4,a5
100013a4:	260007b7          	lui	a5,0x26000
100013a8:	05878793          	addi	a5,a5,88 # 26000058 <_etext+0x15ffd658>
100013ac:	00e7a023          	sw	a4,0(a5)
100013b0:	fce44783          	lbu	a5,-50(s0)
100013b4:	0067d793          	srli	a5,a5,0x6
100013b8:	0ff7f793          	andi	a5,a5,255
100013bc:	00078713          	mv	a4,a5
100013c0:	fcf44783          	lbu	a5,-49(s0)
100013c4:	00279793          	slli	a5,a5,0x2
100013c8:	00f76733          	or	a4,a4,a5
100013cc:	fd044783          	lbu	a5,-48(s0)
100013d0:	00a79793          	slli	a5,a5,0xa
100013d4:	00f76733          	or	a4,a4,a5
100013d8:	260007b7          	lui	a5,0x26000
100013dc:	05c78793          	addi	a5,a5,92 # 2600005c <_etext+0x15ffd65c>
100013e0:	00e7a023          	sw	a4,0(a5)
100013e4:	fd044783          	lbu	a5,-48(s0)
100013e8:	0037d793          	srli	a5,a5,0x3
100013ec:	0ff7f793          	andi	a5,a5,255
100013f0:	00078713          	mv	a4,a5
100013f4:	fd144783          	lbu	a5,-47(s0)
100013f8:	00579793          	slli	a5,a5,0x5
100013fc:	00f76733          	or	a4,a4,a5
10001400:	260007b7          	lui	a5,0x26000
10001404:	06078793          	addi	a5,a5,96 # 26000060 <_etext+0x15ffd660>
10001408:	00e7a023          	sw	a4,0(a5)
1000140c:	fd244783          	lbu	a5,-46(s0)
10001410:	00078713          	mv	a4,a5
10001414:	fd344783          	lbu	a5,-45(s0)
10001418:	00879793          	slli	a5,a5,0x8
1000141c:	00f76733          	or	a4,a4,a5
10001420:	260007b7          	lui	a5,0x26000
10001424:	06478793          	addi	a5,a5,100 # 26000064 <_etext+0x15ffd664>
10001428:	00e7a023          	sw	a4,0(a5)
1000142c:	fd344783          	lbu	a5,-45(s0)
10001430:	0057d793          	srli	a5,a5,0x5
10001434:	0ff7f793          	andi	a5,a5,255
10001438:	00078713          	mv	a4,a5
1000143c:	fd444783          	lbu	a5,-44(s0)
10001440:	00379793          	slli	a5,a5,0x3
10001444:	00f76733          	or	a4,a4,a5
10001448:	fd544783          	lbu	a5,-43(s0)
1000144c:	00b79793          	slli	a5,a5,0xb
10001450:	00f76733          	or	a4,a4,a5
10001454:	260007b7          	lui	a5,0x26000
10001458:	06878793          	addi	a5,a5,104 # 26000068 <_etext+0x15ffd668>
1000145c:	00e7a023          	sw	a4,0(a5)
10001460:	fd544783          	lbu	a5,-43(s0)
10001464:	0027d793          	srli	a5,a5,0x2
10001468:	0ff7f793          	andi	a5,a5,255
1000146c:	00078713          	mv	a4,a5
10001470:	fd644783          	lbu	a5,-42(s0)
10001474:	00679793          	slli	a5,a5,0x6
10001478:	00f76733          	or	a4,a4,a5
1000147c:	260007b7          	lui	a5,0x26000
10001480:	06c78793          	addi	a5,a5,108 # 2600006c <_etext+0x15ffd66c>
10001484:	00e7a023          	sw	a4,0(a5)
10001488:	260007b7          	lui	a5,0x26000
1000148c:	00100713          	li	a4,1
10001490:	00e7a023          	sw	a4,0(a5) # 26000000 <_etext+0x15ffd600>
10001494:	00000013          	nop
10001498:	260007b7          	lui	a5,0x26000
1000149c:	0007a703          	lw	a4,0(a5) # 26000000 <_etext+0x15ffd600>
100014a0:	00100793          	li	a5,1
100014a4:	fef70ae3          	beq	a4,a5,10001498 <main+0x534>
100014a8:	8cdff0ef          	jal	ra,10000d74 <runtime_configure>
100014ac:	260007b7          	lui	a5,0x26000
100014b0:	00c78793          	addi	a5,a5,12 # 2600000c <_etext+0x15ffd60c>
100014b4:	0007a783          	lw	a5,0(a5)
100014b8:	fef42423          	sw	a5,-24(s0)
100014bc:	fe842703          	lw	a4,-24(s0)
100014c0:	000807b7          	lui	a5,0x80
100014c4:	fff78793          	addi	a5,a5,-1 # 7ffff <_fstack+0x7fbff>
100014c8:	00f777b3          	and	a5,a4,a5
100014cc:	fef42423          	sw	a5,-24(s0)
100014d0:	fef44783          	lbu	a5,-17(s0)
100014d4:	fe842703          	lw	a4,-24(s0)
100014d8:	40f757b3          	sra	a5,a4,a5
100014dc:	0017f793          	andi	a5,a5,1
100014e0:	00f037b3          	snez	a5,a5
100014e4:	0ff7f793          	andi	a5,a5,255
100014e8:	fcf40d23          	sb	a5,-38(s0)
100014ec:	fed44703          	lbu	a4,-19(s0)
100014f0:	00100793          	li	a5,1
100014f4:	04f71463          	bne	a4,a5,1000153c <main+0x5d8>
100014f8:	fda44783          	lbu	a5,-38(s0)
100014fc:	00079c63          	bnez	a5,10001514 <main+0x5b0>
10001500:	00400513          	li	a0,4
10001504:	985ff0ef          	jal	ra,10000e88 <gpio_toggle>
10001508:	00100793          	li	a5,1
1000150c:	fcf40da3          	sb	a5,-37(s0)
10001510:	1f00006f          	j	10001700 <main+0x79c>
10001514:	fe0406a3          	sb	zero,-19(s0)
10001518:	fef44783          	lbu	a5,-17(s0)
1000151c:	00100713          	li	a4,1
10001520:	00f717b3          	sll	a5,a4,a5
10001524:	fdc42703          	lw	a4,-36(s0)
10001528:	00f767b3          	or	a5,a4,a5
1000152c:	fcf42e23          	sw	a5,-36(s0)
10001530:	00300513          	li	a0,3
10001534:	955ff0ef          	jal	ra,10000e88 <gpio_toggle>
10001538:	0fc0006f          	j	10001634 <main+0x6d0>
1000153c:	fda44783          	lbu	a5,-38(s0)
10001540:	0e079663          	bnez	a5,1000162c <main+0x6c8>
10001544:	00100793          	li	a5,1
10001548:	fef406a3          	sb	a5,-19(s0)
1000154c:	01e00793          	li	a5,30
10001550:	fef40723          	sb	a5,-18(s0)
10001554:	0940006f          	j	100015e8 <main+0x684>
10001558:	fee44783          	lbu	a5,-18(s0)
1000155c:	ff040713          	addi	a4,s0,-16
10001560:	00f707b3          	add	a5,a4,a5
10001564:	fc87c783          	lbu	a5,-56(a5)
10001568:	01879713          	slli	a4,a5,0x18
1000156c:	41875713          	srai	a4,a4,0x18
10001570:	fee44783          	lbu	a5,-18(s0)
10001574:	ff040693          	addi	a3,s0,-16
10001578:	00f687b3          	add	a5,a3,a5
1000157c:	fc87c783          	lbu	a5,-56(a5)
10001580:	00179793          	slli	a5,a5,0x1
10001584:	01879693          	slli	a3,a5,0x18
10001588:	4186d693          	srai	a3,a3,0x18
1000158c:	fee44783          	lbu	a5,-18(s0)
10001590:	fff78793          	addi	a5,a5,-1
10001594:	ff040613          	addi	a2,s0,-16
10001598:	00f607b3          	add	a5,a2,a5
1000159c:	fc87c783          	lbu	a5,-56(a5)
100015a0:	0077d793          	srli	a5,a5,0x7
100015a4:	0ff7f793          	andi	a5,a5,255
100015a8:	01879793          	slli	a5,a5,0x18
100015ac:	4187d793          	srai	a5,a5,0x18
100015b0:	00f6e7b3          	or	a5,a3,a5
100015b4:	01879793          	slli	a5,a5,0x18
100015b8:	4187d793          	srai	a5,a5,0x18
100015bc:	00f767b3          	or	a5,a4,a5
100015c0:	01879713          	slli	a4,a5,0x18
100015c4:	41875713          	srai	a4,a4,0x18
100015c8:	fee44783          	lbu	a5,-18(s0)
100015cc:	0ff77713          	andi	a4,a4,255
100015d0:	ff040693          	addi	a3,s0,-16
100015d4:	00f687b3          	add	a5,a3,a5
100015d8:	fce78423          	sb	a4,-56(a5)
100015dc:	fee44783          	lbu	a5,-18(s0)
100015e0:	fff78793          	addi	a5,a5,-1
100015e4:	fef40723          	sb	a5,-18(s0)
100015e8:	fee44783          	lbu	a5,-18(s0)
100015ec:	f60796e3          	bnez	a5,10001558 <main+0x5f4>
100015f0:	fb844783          	lbu	a5,-72(s0)
100015f4:	01879713          	slli	a4,a5,0x18
100015f8:	41875713          	srai	a4,a4,0x18
100015fc:	fb844783          	lbu	a5,-72(s0)
10001600:	00179793          	slli	a5,a5,0x1
10001604:	01879793          	slli	a5,a5,0x18
10001608:	4187d793          	srai	a5,a5,0x18
1000160c:	00f767b3          	or	a5,a4,a5
10001610:	01879793          	slli	a5,a5,0x18
10001614:	4187d793          	srai	a5,a5,0x18
10001618:	0ff7f793          	andi	a5,a5,255
1000161c:	faf40c23          	sb	a5,-72(s0)
10001620:	00200513          	li	a0,2
10001624:	865ff0ef          	jal	ra,10000e88 <gpio_toggle>
10001628:	00c0006f          	j	10001634 <main+0x6d0>
1000162c:	00100513          	li	a0,1
10001630:	859ff0ef          	jal	ra,10000e88 <gpio_toggle>
10001634:	fed44703          	lbu	a4,-19(s0)
10001638:	00100793          	li	a5,1
1000163c:	00f71a63          	bne	a4,a5,10001650 <main+0x6ec>
10001640:	fef44783          	lbu	a5,-17(s0)
10001644:	fff78793          	addi	a5,a5,-1
10001648:	fef407a3          	sb	a5,-17(s0)
1000164c:	09c0006f          	j	100016e8 <main+0x784>
10001650:	01d00793          	li	a5,29
10001654:	fef40723          	sb	a5,-18(s0)
10001658:	0740006f          	j	100016cc <main+0x768>
1000165c:	fee44783          	lbu	a5,-18(s0)
10001660:	ff040713          	addi	a4,s0,-16
10001664:	00f707b3          	add	a5,a4,a5
10001668:	fc87c783          	lbu	a5,-56(a5)
1000166c:	00479793          	slli	a5,a5,0x4
10001670:	01879713          	slli	a4,a5,0x18
10001674:	41875713          	srai	a4,a4,0x18
10001678:	fee44783          	lbu	a5,-18(s0)
1000167c:	fff78793          	addi	a5,a5,-1
10001680:	ff040693          	addi	a3,s0,-16
10001684:	00f687b3          	add	a5,a3,a5
10001688:	fc87c783          	lbu	a5,-56(a5)
1000168c:	0047d793          	srli	a5,a5,0x4
10001690:	0ff7f793          	andi	a5,a5,255
10001694:	01879793          	slli	a5,a5,0x18
10001698:	4187d793          	srai	a5,a5,0x18
1000169c:	00f767b3          	or	a5,a4,a5
100016a0:	01879713          	slli	a4,a5,0x18
100016a4:	41875713          	srai	a4,a4,0x18
100016a8:	fee44783          	lbu	a5,-18(s0)
100016ac:	00178793          	addi	a5,a5,1
100016b0:	0ff77713          	andi	a4,a4,255
100016b4:	ff040693          	addi	a3,s0,-16
100016b8:	00f687b3          	add	a5,a3,a5
100016bc:	fce78423          	sb	a4,-56(a5)
100016c0:	fee44783          	lbu	a5,-18(s0)
100016c4:	fff78793          	addi	a5,a5,-1
100016c8:	fef40723          	sb	a5,-18(s0)
100016cc:	fee44783          	lbu	a5,-18(s0)
100016d0:	f80796e3          	bnez	a5,1000165c <main+0x6f8>
100016d4:	fb844783          	lbu	a5,-72(s0)
100016d8:	00479793          	slli	a5,a5,0x4
100016dc:	0ff7f793          	andi	a5,a5,255
100016e0:	faf40ca3          	sb	a5,-71(s0)
100016e4:	fa040c23          	sb	zero,-72(s0)
100016e8:	fef44783          	lbu	a5,-17(s0)
100016ec:	00178793          	addi	a5,a5,1
100016f0:	fef407a3          	sb	a5,-17(s0)
100016f4:	fef44703          	lbu	a4,-17(s0)
100016f8:	01200793          	li	a5,18
100016fc:	a4e7f0e3          	bgeu	a5,a4,1000113c <main+0x1d8>
10001700:	260007b7          	lui	a5,0x26000
10001704:	06c78793          	addi	a5,a5,108 # 2600006c <_etext+0x15ffd66c>
10001708:	0007a023          	sw	zero,0(a5)
1000170c:	260007b7          	lui	a5,0x26000
10001710:	06878793          	addi	a5,a5,104 # 26000068 <_etext+0x15ffd668>
10001714:	0007a023          	sw	zero,0(a5)
10001718:	260007b7          	lui	a5,0x26000
1000171c:	06478793          	addi	a5,a5,100 # 26000064 <_etext+0x15ffd664>
10001720:	0007a023          	sw	zero,0(a5)
10001724:	260007b7          	lui	a5,0x26000
10001728:	06078793          	addi	a5,a5,96 # 26000060 <_etext+0x15ffd660>
1000172c:	0007a023          	sw	zero,0(a5)
10001730:	f04ff0ef          	jal	ra,10000e34 <disabled_configure>
10001734:	260007b7          	lui	a5,0x26000
10001738:	02478793          	addi	a5,a5,36 # 26000024 <_etext+0x15ffd624>
1000173c:	00001737          	lui	a4,0x1
10001740:	00370713          	addi	a4,a4,3 # 1003 <_fstack+0xc03>
10001744:	00e7a023          	sw	a4,0(a5)
10001748:	260007b7          	lui	a5,0x26000
1000174c:	0b878793          	addi	a5,a5,184 # 260000b8 <_etext+0x15ffd6b8>
10001750:	00002737          	lui	a4,0x2
10001754:	80970713          	addi	a4,a4,-2039 # 1809 <_fstack+0x1409>
10001758:	00e7a023          	sw	a4,0(a5)
1000175c:	260007b7          	lui	a5,0x26000
10001760:	00100713          	li	a4,1
10001764:	00e7a023          	sw	a4,0(a5) # 26000000 <_etext+0x15ffd600>
10001768:	00000013          	nop
1000176c:	260007b7          	lui	a5,0x26000
10001770:	0007a703          	lw	a4,0(a5) # 26000000 <_etext+0x15ffd600>
10001774:	00100793          	li	a5,1
10001778:	fef70ae3          	beq	a4,a5,1000176c <main+0x808>
1000177c:	260007b7          	lui	a5,0x26000
10001780:	01078793          	addi	a5,a5,16 # 26000010 <_etext+0x15ffd610>
10001784:	02000713          	li	a4,32
10001788:	00e7a023          	sw	a4,0(a5)
1000178c:	00000013          	nop
10001790:	260007b7          	lui	a5,0x26000
10001794:	00c78793          	addi	a5,a5,12 # 2600000c <_etext+0x15ffd60c>
10001798:	0007a783          	lw	a5,0(a5)
1000179c:	0017f713          	andi	a4,a5,1
100017a0:	00100793          	li	a5,1
100017a4:	fef706e3          	beq	a4,a5,10001790 <main+0x82c>
100017a8:	260007b7          	lui	a5,0x26000
100017ac:	00c78793          	addi	a5,a5,12 # 2600000c <_etext+0x15ffd60c>
100017b0:	0007a023          	sw	zero,0(a5)
100017b4:	e80ff0ef          	jal	ra,10000e34 <disabled_configure>
100017b8:	260007b7          	lui	a5,0x26000
100017bc:	02478793          	addi	a5,a5,36 # 26000024 <_etext+0x15ffd624>
100017c0:	00002737          	lui	a4,0x2
100017c4:	80970713          	addi	a4,a4,-2039 # 1809 <_fstack+0x1409>
100017c8:	00e7a023          	sw	a4,0(a5)
100017cc:	260007b7          	lui	a5,0x26000
100017d0:	0b878793          	addi	a5,a5,184 # 260000b8 <_etext+0x15ffd6b8>
100017d4:	00001737          	lui	a4,0x1
100017d8:	00370713          	addi	a4,a4,3 # 1003 <_fstack+0xc03>
100017dc:	00e7a023          	sw	a4,0(a5)
100017e0:	260007b7          	lui	a5,0x26000
100017e4:	00100713          	li	a4,1
100017e8:	00e7a023          	sw	a4,0(a5) # 26000000 <_etext+0x15ffd600>
100017ec:	00000013          	nop
100017f0:	260007b7          	lui	a5,0x26000
100017f4:	0007a703          	lw	a4,0(a5) # 26000000 <_etext+0x15ffd600>
100017f8:	00100793          	li	a5,1
100017fc:	fef70ae3          	beq	a4,a5,100017f0 <main+0x88c>
10001800:	fe040723          	sb	zero,-18(s0)
10001804:	0200006f          	j	10001824 <main+0x8c0>
10001808:	fee44783          	lbu	a5,-18(s0)
1000180c:	ff040713          	addi	a4,s0,-16
10001810:	00f707b3          	add	a5,a4,a5
10001814:	fc078423          	sb	zero,-56(a5)
10001818:	fee44783          	lbu	a5,-18(s0)
1000181c:	00178793          	addi	a5,a5,1
10001820:	fef40723          	sb	a5,-18(s0)
10001824:	fee44703          	lbu	a4,-18(s0)
10001828:	01e00793          	li	a5,30
1000182c:	fce7fee3          	bgeu	a5,a4,10001808 <main+0x8a4>
10001830:	01000793          	li	a5,16
10001834:	faf40ca3          	sb	a5,-71(s0)
10001838:	00300793          	li	a5,3
1000183c:	faf40c23          	sb	a5,-72(s0)
10001840:	fe0406a3          	sb	zero,-19(s0)
10001844:	fc040da3          	sb	zero,-37(s0)
10001848:	fe0407a3          	sb	zero,-17(s0)
1000184c:	5c80006f          	j	10001e14 <main+0xeb0>
10001850:	fb844783          	lbu	a5,-72(s0)
10001854:	00078713          	mv	a4,a5
10001858:	fb944783          	lbu	a5,-71(s0)
1000185c:	00879793          	slli	a5,a5,0x8
10001860:	00f76733          	or	a4,a4,a5
10001864:	260007b7          	lui	a5,0x26000
10001868:	0b878793          	addi	a5,a5,184 # 260000b8 <_etext+0x15ffd6b8>
1000186c:	00e7a023          	sw	a4,0(a5)
10001870:	fb944783          	lbu	a5,-71(s0)
10001874:	0057d793          	srli	a5,a5,0x5
10001878:	0ff7f793          	andi	a5,a5,255
1000187c:	00078713          	mv	a4,a5
10001880:	fba44783          	lbu	a5,-70(s0)
10001884:	00379793          	slli	a5,a5,0x3
10001888:	00f76733          	or	a4,a4,a5
1000188c:	fbb44783          	lbu	a5,-69(s0)
10001890:	00b79793          	slli	a5,a5,0xb
10001894:	00f76733          	or	a4,a4,a5
10001898:	260007b7          	lui	a5,0x26000
1000189c:	0b478793          	addi	a5,a5,180 # 260000b4 <_etext+0x15ffd6b4>
100018a0:	00e7a023          	sw	a4,0(a5)
100018a4:	fbb44783          	lbu	a5,-69(s0)
100018a8:	0027d793          	srli	a5,a5,0x2
100018ac:	0ff7f793          	andi	a5,a5,255
100018b0:	00078713          	mv	a4,a5
100018b4:	fbc44783          	lbu	a5,-68(s0)
100018b8:	00679793          	slli	a5,a5,0x6
100018bc:	00f76733          	or	a4,a4,a5
100018c0:	260007b7          	lui	a5,0x26000
100018c4:	0b078793          	addi	a5,a5,176 # 260000b0 <_etext+0x15ffd6b0>
100018c8:	00e7a023          	sw	a4,0(a5)
100018cc:	fbc44783          	lbu	a5,-68(s0)
100018d0:	0077d793          	srli	a5,a5,0x7
100018d4:	0ff7f793          	andi	a5,a5,255
100018d8:	00078713          	mv	a4,a5
100018dc:	fbd44783          	lbu	a5,-67(s0)
100018e0:	00179793          	slli	a5,a5,0x1
100018e4:	00f76733          	or	a4,a4,a5
100018e8:	fbe44783          	lbu	a5,-66(s0)
100018ec:	00979793          	slli	a5,a5,0x9
100018f0:	00f76733          	or	a4,a4,a5
100018f4:	260007b7          	lui	a5,0x26000
100018f8:	0ac78793          	addi	a5,a5,172 # 260000ac <_etext+0x15ffd6ac>
100018fc:	00e7a023          	sw	a4,0(a5)
10001900:	fbe44783          	lbu	a5,-66(s0)
10001904:	0047d793          	srli	a5,a5,0x4
10001908:	0ff7f793          	andi	a5,a5,255
1000190c:	00078713          	mv	a4,a5
10001910:	fbf44783          	lbu	a5,-65(s0)
10001914:	00479793          	slli	a5,a5,0x4
10001918:	00f76733          	or	a4,a4,a5
1000191c:	fc044783          	lbu	a5,-64(s0)
10001920:	00c79793          	slli	a5,a5,0xc
10001924:	00f76733          	or	a4,a4,a5
10001928:	260007b7          	lui	a5,0x26000
1000192c:	0a878793          	addi	a5,a5,168 # 260000a8 <_etext+0x15ffd6a8>
10001930:	00e7a023          	sw	a4,0(a5)
10001934:	fc044783          	lbu	a5,-64(s0)
10001938:	0017d793          	srli	a5,a5,0x1
1000193c:	0ff7f793          	andi	a5,a5,255
10001940:	00078713          	mv	a4,a5
10001944:	fc144783          	lbu	a5,-63(s0)
10001948:	00779793          	slli	a5,a5,0x7
1000194c:	00f76733          	or	a4,a4,a5
10001950:	260007b7          	lui	a5,0x26000
10001954:	0a478793          	addi	a5,a5,164 # 260000a4 <_etext+0x15ffd6a4>
10001958:	00e7a023          	sw	a4,0(a5)
1000195c:	fc144783          	lbu	a5,-63(s0)
10001960:	0067d793          	srli	a5,a5,0x6
10001964:	0ff7f793          	andi	a5,a5,255
10001968:	00078713          	mv	a4,a5
1000196c:	fc244783          	lbu	a5,-62(s0)
10001970:	00279793          	slli	a5,a5,0x2
10001974:	00f76733          	or	a4,a4,a5
10001978:	fc344783          	lbu	a5,-61(s0)
1000197c:	00a79793          	slli	a5,a5,0xa
10001980:	00f76733          	or	a4,a4,a5
10001984:	260007b7          	lui	a5,0x26000
10001988:	0a078793          	addi	a5,a5,160 # 260000a0 <_etext+0x15ffd6a0>
1000198c:	00e7a023          	sw	a4,0(a5)
10001990:	fc344783          	lbu	a5,-61(s0)
10001994:	0037d793          	srli	a5,a5,0x3
10001998:	0ff7f793          	andi	a5,a5,255
1000199c:	00078713          	mv	a4,a5
100019a0:	fc444783          	lbu	a5,-60(s0)
100019a4:	00579793          	slli	a5,a5,0x5
100019a8:	00f76733          	or	a4,a4,a5
100019ac:	260007b7          	lui	a5,0x26000
100019b0:	09c78793          	addi	a5,a5,156 # 2600009c <_etext+0x15ffd69c>
100019b4:	00e7a023          	sw	a4,0(a5)
100019b8:	fc544783          	lbu	a5,-59(s0)
100019bc:	00078713          	mv	a4,a5
100019c0:	fc644783          	lbu	a5,-58(s0)
100019c4:	00879793          	slli	a5,a5,0x8
100019c8:	00f76733          	or	a4,a4,a5
100019cc:	260007b7          	lui	a5,0x26000
100019d0:	09878793          	addi	a5,a5,152 # 26000098 <_etext+0x15ffd698>
100019d4:	00e7a023          	sw	a4,0(a5)
100019d8:	fc644783          	lbu	a5,-58(s0)
100019dc:	0057d793          	srli	a5,a5,0x5
100019e0:	0ff7f793          	andi	a5,a5,255
100019e4:	00078713          	mv	a4,a5
100019e8:	fc744783          	lbu	a5,-57(s0)
100019ec:	00379793          	slli	a5,a5,0x3
100019f0:	00f76733          	or	a4,a4,a5
100019f4:	fc844783          	lbu	a5,-56(s0)
100019f8:	00b79793          	slli	a5,a5,0xb
100019fc:	00f76733          	or	a4,a4,a5
10001a00:	260007b7          	lui	a5,0x26000
10001a04:	09478793          	addi	a5,a5,148 # 26000094 <_etext+0x15ffd694>
10001a08:	00e7a023          	sw	a4,0(a5)
10001a0c:	fc844783          	lbu	a5,-56(s0)
10001a10:	0027d793          	srli	a5,a5,0x2
10001a14:	0ff7f793          	andi	a5,a5,255
10001a18:	00078713          	mv	a4,a5
10001a1c:	fc944783          	lbu	a5,-55(s0)
10001a20:	00679793          	slli	a5,a5,0x6
10001a24:	00f76733          	or	a4,a4,a5
10001a28:	260007b7          	lui	a5,0x26000
10001a2c:	09078793          	addi	a5,a5,144 # 26000090 <_etext+0x15ffd690>
10001a30:	00e7a023          	sw	a4,0(a5)
10001a34:	fc944783          	lbu	a5,-55(s0)
10001a38:	0077d793          	srli	a5,a5,0x7
10001a3c:	0ff7f793          	andi	a5,a5,255
10001a40:	00078713          	mv	a4,a5
10001a44:	fca44783          	lbu	a5,-54(s0)
10001a48:	00179793          	slli	a5,a5,0x1
10001a4c:	00f76733          	or	a4,a4,a5
10001a50:	fcb44783          	lbu	a5,-53(s0)
10001a54:	00979793          	slli	a5,a5,0x9
10001a58:	00f76733          	or	a4,a4,a5
10001a5c:	260007b7          	lui	a5,0x26000
10001a60:	08c78793          	addi	a5,a5,140 # 2600008c <_etext+0x15ffd68c>
10001a64:	00e7a023          	sw	a4,0(a5)
10001a68:	fcb44783          	lbu	a5,-53(s0)
10001a6c:	0047d793          	srli	a5,a5,0x4
10001a70:	0ff7f793          	andi	a5,a5,255
10001a74:	00078713          	mv	a4,a5
10001a78:	fcc44783          	lbu	a5,-52(s0)
10001a7c:	00479793          	slli	a5,a5,0x4
10001a80:	00f76733          	or	a4,a4,a5
10001a84:	fcd44783          	lbu	a5,-51(s0)
10001a88:	00c79793          	slli	a5,a5,0xc
10001a8c:	00f76733          	or	a4,a4,a5
10001a90:	260007b7          	lui	a5,0x26000
10001a94:	08878793          	addi	a5,a5,136 # 26000088 <_etext+0x15ffd688>
10001a98:	00e7a023          	sw	a4,0(a5)
10001a9c:	fcd44783          	lbu	a5,-51(s0)
10001aa0:	0017d793          	srli	a5,a5,0x1
10001aa4:	0ff7f793          	andi	a5,a5,255
10001aa8:	00078713          	mv	a4,a5
10001aac:	fce44783          	lbu	a5,-50(s0)
10001ab0:	00779793          	slli	a5,a5,0x7
10001ab4:	00f76733          	or	a4,a4,a5
10001ab8:	260007b7          	lui	a5,0x26000
10001abc:	08478793          	addi	a5,a5,132 # 26000084 <_etext+0x15ffd684>
10001ac0:	00e7a023          	sw	a4,0(a5)
10001ac4:	fce44783          	lbu	a5,-50(s0)
10001ac8:	0067d793          	srli	a5,a5,0x6
10001acc:	0ff7f793          	andi	a5,a5,255
10001ad0:	00078713          	mv	a4,a5
10001ad4:	fcf44783          	lbu	a5,-49(s0)
10001ad8:	00279793          	slli	a5,a5,0x2
10001adc:	00f76733          	or	a4,a4,a5
10001ae0:	fd044783          	lbu	a5,-48(s0)
10001ae4:	00a79793          	slli	a5,a5,0xa
10001ae8:	00f76733          	or	a4,a4,a5
10001aec:	260007b7          	lui	a5,0x26000
10001af0:	08078793          	addi	a5,a5,128 # 26000080 <_etext+0x15ffd680>
10001af4:	00e7a023          	sw	a4,0(a5)
10001af8:	fd044783          	lbu	a5,-48(s0)
10001afc:	0037d793          	srli	a5,a5,0x3
10001b00:	0ff7f793          	andi	a5,a5,255
10001b04:	00078713          	mv	a4,a5
10001b08:	fd144783          	lbu	a5,-47(s0)
10001b0c:	00579793          	slli	a5,a5,0x5
10001b10:	00f76733          	or	a4,a4,a5
10001b14:	260007b7          	lui	a5,0x26000
10001b18:	07c78793          	addi	a5,a5,124 # 2600007c <_etext+0x15ffd67c>
10001b1c:	00e7a023          	sw	a4,0(a5)
10001b20:	fd244783          	lbu	a5,-46(s0)
10001b24:	00078713          	mv	a4,a5
10001b28:	fd344783          	lbu	a5,-45(s0)
10001b2c:	00879793          	slli	a5,a5,0x8
10001b30:	00f76733          	or	a4,a4,a5
10001b34:	260007b7          	lui	a5,0x26000
10001b38:	07878793          	addi	a5,a5,120 # 26000078 <_etext+0x15ffd678>
10001b3c:	00e7a023          	sw	a4,0(a5)
10001b40:	fd344783          	lbu	a5,-45(s0)
10001b44:	0057d793          	srli	a5,a5,0x5
10001b48:	0ff7f793          	andi	a5,a5,255
10001b4c:	00078713          	mv	a4,a5
10001b50:	fd444783          	lbu	a5,-44(s0)
10001b54:	00379793          	slli	a5,a5,0x3
10001b58:	00f76733          	or	a4,a4,a5
10001b5c:	fd544783          	lbu	a5,-43(s0)
10001b60:	00b79793          	slli	a5,a5,0xb
10001b64:	00f76733          	or	a4,a4,a5
10001b68:	260007b7          	lui	a5,0x26000
10001b6c:	07478793          	addi	a5,a5,116 # 26000074 <_etext+0x15ffd674>
10001b70:	00e7a023          	sw	a4,0(a5)
10001b74:	fd544783          	lbu	a5,-43(s0)
10001b78:	0027d793          	srli	a5,a5,0x2
10001b7c:	0ff7f793          	andi	a5,a5,255
10001b80:	00078713          	mv	a4,a5
10001b84:	fd644783          	lbu	a5,-42(s0)
10001b88:	00679793          	slli	a5,a5,0x6
10001b8c:	00f76733          	or	a4,a4,a5
10001b90:	260007b7          	lui	a5,0x26000
10001b94:	07078793          	addi	a5,a5,112 # 26000070 <_etext+0x15ffd670>
10001b98:	00e7a023          	sw	a4,0(a5)
10001b9c:	260007b7          	lui	a5,0x26000
10001ba0:	00100713          	li	a4,1
10001ba4:	00e7a023          	sw	a4,0(a5) # 26000000 <_etext+0x15ffd600>
10001ba8:	00000013          	nop
10001bac:	260007b7          	lui	a5,0x26000
10001bb0:	0007a703          	lw	a4,0(a5) # 26000000 <_etext+0x15ffd600>
10001bb4:	00100793          	li	a5,1
10001bb8:	fef70ae3          	beq	a4,a5,10001bac <main+0xc48>
10001bbc:	9b8ff0ef          	jal	ra,10000d74 <runtime_configure>
10001bc0:	260007b7          	lui	a5,0x26000
10001bc4:	01078793          	addi	a5,a5,16 # 26000010 <_etext+0x15ffd610>
10001bc8:	0007a783          	lw	a5,0(a5)
10001bcc:	00d79713          	slli	a4,a5,0xd
10001bd0:	260007b7          	lui	a5,0x26000
10001bd4:	00c78793          	addi	a5,a5,12 # 2600000c <_etext+0x15ffd60c>
10001bd8:	0007a783          	lw	a5,0(a5)
10001bdc:	0137d793          	srli	a5,a5,0x13
10001be0:	00f767b3          	or	a5,a4,a5
10001be4:	fef42423          	sw	a5,-24(s0)
10001be8:	fef44783          	lbu	a5,-17(s0)
10001bec:	01200713          	li	a4,18
10001bf0:	40f707b3          	sub	a5,a4,a5
10001bf4:	fe842703          	lw	a4,-24(s0)
10001bf8:	40f757b3          	sra	a5,a4,a5
10001bfc:	0017f793          	andi	a5,a5,1
10001c00:	00f037b3          	snez	a5,a5
10001c04:	0ff7f793          	andi	a5,a5,255
10001c08:	fcf40d23          	sb	a5,-38(s0)
10001c0c:	fed44703          	lbu	a4,-19(s0)
10001c10:	00100793          	li	a5,1
10001c14:	04f71463          	bne	a4,a5,10001c5c <main+0xcf8>
10001c18:	fda44783          	lbu	a5,-38(s0)
10001c1c:	00079c63          	bnez	a5,10001c34 <main+0xcd0>
10001c20:	00400513          	li	a0,4
10001c24:	a64ff0ef          	jal	ra,10000e88 <gpio_toggle>
10001c28:	00100793          	li	a5,1
10001c2c:	fcf40da3          	sb	a5,-37(s0)
10001c30:	1f00006f          	j	10001e20 <main+0xebc>
10001c34:	fe0406a3          	sb	zero,-19(s0)
10001c38:	fef44783          	lbu	a5,-17(s0)
10001c3c:	00100713          	li	a4,1
10001c40:	00f717b3          	sll	a5,a4,a5
10001c44:	fe042703          	lw	a4,-32(s0)
10001c48:	00f767b3          	or	a5,a4,a5
10001c4c:	fef42023          	sw	a5,-32(s0)
10001c50:	00300513          	li	a0,3
10001c54:	a34ff0ef          	jal	ra,10000e88 <gpio_toggle>
10001c58:	0fc0006f          	j	10001d54 <main+0xdf0>
10001c5c:	fda44783          	lbu	a5,-38(s0)
10001c60:	0e079663          	bnez	a5,10001d4c <main+0xde8>
10001c64:	00100793          	li	a5,1
10001c68:	fef406a3          	sb	a5,-19(s0)
10001c6c:	01e00793          	li	a5,30
10001c70:	fef40723          	sb	a5,-18(s0)
10001c74:	0940006f          	j	10001d08 <main+0xda4>
10001c78:	fee44783          	lbu	a5,-18(s0)
10001c7c:	ff040713          	addi	a4,s0,-16
10001c80:	00f707b3          	add	a5,a4,a5
10001c84:	fc87c783          	lbu	a5,-56(a5)
10001c88:	01879713          	slli	a4,a5,0x18
10001c8c:	41875713          	srai	a4,a4,0x18
10001c90:	fee44783          	lbu	a5,-18(s0)
10001c94:	ff040693          	addi	a3,s0,-16
10001c98:	00f687b3          	add	a5,a3,a5
10001c9c:	fc87c783          	lbu	a5,-56(a5)
10001ca0:	00179793          	slli	a5,a5,0x1
10001ca4:	01879693          	slli	a3,a5,0x18
10001ca8:	4186d693          	srai	a3,a3,0x18
10001cac:	fee44783          	lbu	a5,-18(s0)
10001cb0:	fff78793          	addi	a5,a5,-1
10001cb4:	ff040613          	addi	a2,s0,-16
10001cb8:	00f607b3          	add	a5,a2,a5
10001cbc:	fc87c783          	lbu	a5,-56(a5)
10001cc0:	0077d793          	srli	a5,a5,0x7
10001cc4:	0ff7f793          	andi	a5,a5,255
10001cc8:	01879793          	slli	a5,a5,0x18
10001ccc:	4187d793          	srai	a5,a5,0x18
10001cd0:	00f6e7b3          	or	a5,a3,a5
10001cd4:	01879793          	slli	a5,a5,0x18
10001cd8:	4187d793          	srai	a5,a5,0x18
10001cdc:	00f767b3          	or	a5,a4,a5
10001ce0:	01879713          	slli	a4,a5,0x18
10001ce4:	41875713          	srai	a4,a4,0x18
10001ce8:	fee44783          	lbu	a5,-18(s0)
10001cec:	0ff77713          	andi	a4,a4,255
10001cf0:	ff040693          	addi	a3,s0,-16
10001cf4:	00f687b3          	add	a5,a3,a5
10001cf8:	fce78423          	sb	a4,-56(a5)
10001cfc:	fee44783          	lbu	a5,-18(s0)
10001d00:	fff78793          	addi	a5,a5,-1
10001d04:	fef40723          	sb	a5,-18(s0)
10001d08:	fee44783          	lbu	a5,-18(s0)
10001d0c:	f60796e3          	bnez	a5,10001c78 <main+0xd14>
10001d10:	fb844783          	lbu	a5,-72(s0)
10001d14:	01879713          	slli	a4,a5,0x18
10001d18:	41875713          	srai	a4,a4,0x18
10001d1c:	fb844783          	lbu	a5,-72(s0)
10001d20:	00179793          	slli	a5,a5,0x1
10001d24:	01879793          	slli	a5,a5,0x18
10001d28:	4187d793          	srai	a5,a5,0x18
10001d2c:	00f767b3          	or	a5,a4,a5
10001d30:	01879793          	slli	a5,a5,0x18
10001d34:	4187d793          	srai	a5,a5,0x18
10001d38:	0ff7f793          	andi	a5,a5,255
10001d3c:	faf40c23          	sb	a5,-72(s0)
10001d40:	00200513          	li	a0,2
10001d44:	944ff0ef          	jal	ra,10000e88 <gpio_toggle>
10001d48:	00c0006f          	j	10001d54 <main+0xdf0>
10001d4c:	00100513          	li	a0,1
10001d50:	938ff0ef          	jal	ra,10000e88 <gpio_toggle>
10001d54:	fed44703          	lbu	a4,-19(s0)
10001d58:	00100793          	li	a5,1
10001d5c:	00f71a63          	bne	a4,a5,10001d70 <main+0xe0c>
10001d60:	fef44783          	lbu	a5,-17(s0)
10001d64:	fff78793          	addi	a5,a5,-1
10001d68:	fef407a3          	sb	a5,-17(s0)
10001d6c:	09c0006f          	j	10001e08 <main+0xea4>
10001d70:	01d00793          	li	a5,29
10001d74:	fef40723          	sb	a5,-18(s0)
10001d78:	0740006f          	j	10001dec <main+0xe88>
10001d7c:	fee44783          	lbu	a5,-18(s0)
10001d80:	ff040713          	addi	a4,s0,-16
10001d84:	00f707b3          	add	a5,a4,a5
10001d88:	fc87c783          	lbu	a5,-56(a5)
10001d8c:	00479793          	slli	a5,a5,0x4
10001d90:	01879713          	slli	a4,a5,0x18
10001d94:	41875713          	srai	a4,a4,0x18
10001d98:	fee44783          	lbu	a5,-18(s0)
10001d9c:	fff78793          	addi	a5,a5,-1
10001da0:	ff040693          	addi	a3,s0,-16
10001da4:	00f687b3          	add	a5,a3,a5
10001da8:	fc87c783          	lbu	a5,-56(a5)
10001dac:	0047d793          	srli	a5,a5,0x4
10001db0:	0ff7f793          	andi	a5,a5,255
10001db4:	01879793          	slli	a5,a5,0x18
10001db8:	4187d793          	srai	a5,a5,0x18
10001dbc:	00f767b3          	or	a5,a4,a5
10001dc0:	01879713          	slli	a4,a5,0x18
10001dc4:	41875713          	srai	a4,a4,0x18
10001dc8:	fee44783          	lbu	a5,-18(s0)
10001dcc:	00178793          	addi	a5,a5,1
10001dd0:	0ff77713          	andi	a4,a4,255
10001dd4:	ff040693          	addi	a3,s0,-16
10001dd8:	00f687b3          	add	a5,a3,a5
10001ddc:	fce78423          	sb	a4,-56(a5)
10001de0:	fee44783          	lbu	a5,-18(s0)
10001de4:	fff78793          	addi	a5,a5,-1
10001de8:	fef40723          	sb	a5,-18(s0)
10001dec:	fee44783          	lbu	a5,-18(s0)
10001df0:	f80796e3          	bnez	a5,10001d7c <main+0xe18>
10001df4:	fb844783          	lbu	a5,-72(s0)
10001df8:	00479793          	slli	a5,a5,0x4
10001dfc:	0ff7f793          	andi	a5,a5,255
10001e00:	faf40ca3          	sb	a5,-71(s0)
10001e04:	fa040c23          	sb	zero,-72(s0)
10001e08:	fef44783          	lbu	a5,-17(s0)
10001e0c:	00178793          	addi	a5,a5,1
10001e10:	fef407a3          	sb	a5,-17(s0)
10001e14:	fef44703          	lbu	a4,-17(s0)
10001e18:	01200793          	li	a5,18
10001e1c:	a2e7fae3          	bgeu	a5,a4,10001850 <main+0x8ec>
10001e20:	814ff0ef          	jal	ra,10000e34 <disabled_configure>
10001e24:	260007b7          	lui	a5,0x26000
10001e28:	02478793          	addi	a5,a5,36 # 26000024 <_etext+0x15ffd624>
10001e2c:	00002737          	lui	a4,0x2
10001e30:	80970713          	addi	a4,a4,-2039 # 1809 <_fstack+0x1409>
10001e34:	00e7a023          	sw	a4,0(a5)
10001e38:	260007b7          	lui	a5,0x26000
10001e3c:	0b878793          	addi	a5,a5,184 # 260000b8 <_etext+0x15ffd6b8>
10001e40:	00001737          	lui	a4,0x1
10001e44:	00370713          	addi	a4,a4,3 # 1003 <_fstack+0xc03>
10001e48:	00e7a023          	sw	a4,0(a5)
10001e4c:	260007b7          	lui	a5,0x26000
10001e50:	00100713          	li	a4,1
10001e54:	00e7a023          	sw	a4,0(a5) # 26000000 <_etext+0x15ffd600>
10001e58:	00000013          	nop
10001e5c:	260007b7          	lui	a5,0x26000
10001e60:	0007a703          	lw	a4,0(a5) # 26000000 <_etext+0x15ffd600>
10001e64:	00100793          	li	a5,1
10001e68:	fef70ae3          	beq	a4,a5,10001e5c <main+0xef8>
10001e6c:	260007b7          	lui	a5,0x26000
10001e70:	00c78793          	addi	a5,a5,12 # 2600000c <_etext+0x15ffd60c>
10001e74:	00100713          	li	a4,1
10001e78:	00e7a023          	sw	a4,0(a5)
10001e7c:	00000013          	nop
10001e80:	260007b7          	lui	a5,0x26000
10001e84:	01078793          	addi	a5,a5,16 # 26000010 <_etext+0x15ffd610>
10001e88:	0007a783          	lw	a5,0(a5)
10001e8c:	0207f793          	andi	a5,a5,32
10001e90:	fe0798e3          	bnez	a5,10001e80 <main+0xf1c>
10001e94:	fe040723          	sb	zero,-18(s0)
10001e98:	0200006f          	j	10001eb8 <main+0xf54>
10001e9c:	fee44783          	lbu	a5,-18(s0)
10001ea0:	ff040713          	addi	a4,s0,-16
10001ea4:	00f707b3          	add	a5,a4,a5
10001ea8:	fc078423          	sb	zero,-56(a5)
10001eac:	fee44783          	lbu	a5,-18(s0)
10001eb0:	00178793          	addi	a5,a5,1
10001eb4:	fef40723          	sb	a5,-18(s0)
10001eb8:	fee44703          	lbu	a4,-18(s0)
10001ebc:	01e00793          	li	a5,30
10001ec0:	fce7fee3          	bgeu	a5,a4,10001e9c <main+0xf38>
10001ec4:	01300793          	li	a5,19
10001ec8:	fef407a3          	sb	a5,-17(s0)
10001ecc:	1780006f          	j	10002044 <main+0x10e0>
10001ed0:	01d00793          	li	a5,29
10001ed4:	fef40723          	sb	a5,-18(s0)
10001ed8:	0740006f          	j	10001f4c <main+0xfe8>
10001edc:	fee44783          	lbu	a5,-18(s0)
10001ee0:	ff040713          	addi	a4,s0,-16
10001ee4:	00f707b3          	add	a5,a4,a5
10001ee8:	fc87c783          	lbu	a5,-56(a5)
10001eec:	00479793          	slli	a5,a5,0x4
10001ef0:	01879713          	slli	a4,a5,0x18
10001ef4:	41875713          	srai	a4,a4,0x18
10001ef8:	fee44783          	lbu	a5,-18(s0)
10001efc:	fff78793          	addi	a5,a5,-1
10001f00:	ff040693          	addi	a3,s0,-16
10001f04:	00f687b3          	add	a5,a3,a5
10001f08:	fc87c783          	lbu	a5,-56(a5)
10001f0c:	0047d793          	srli	a5,a5,0x4
10001f10:	0ff7f793          	andi	a5,a5,255
10001f14:	01879793          	slli	a5,a5,0x18
10001f18:	4187d793          	srai	a5,a5,0x18
10001f1c:	00f767b3          	or	a5,a4,a5
10001f20:	01879713          	slli	a4,a5,0x18
10001f24:	41875713          	srai	a4,a4,0x18
10001f28:	fee44783          	lbu	a5,-18(s0)
10001f2c:	00178793          	addi	a5,a5,1
10001f30:	0ff77713          	andi	a4,a4,255
10001f34:	ff040693          	addi	a3,s0,-16
10001f38:	00f687b3          	add	a5,a3,a5
10001f3c:	fce78423          	sb	a4,-56(a5)
10001f40:	fee44783          	lbu	a5,-18(s0)
10001f44:	fff78793          	addi	a5,a5,-1
10001f48:	fef40723          	sb	a5,-18(s0)
10001f4c:	fee44783          	lbu	a5,-18(s0)
10001f50:	f80796e3          	bnez	a5,10001edc <main+0xf78>
10001f54:	fb844783          	lbu	a5,-72(s0)
10001f58:	00479793          	slli	a5,a5,0x4
10001f5c:	0ff7f793          	andi	a5,a5,255
10001f60:	faf40ca3          	sb	a5,-71(s0)
10001f64:	fa040c23          	sb	zero,-72(s0)
10001f68:	fef44783          	lbu	a5,-17(s0)
10001f6c:	fdc42703          	lw	a4,-36(s0)
10001f70:	40f757b3          	sra	a5,a4,a5
10001f74:	0017f793          	andi	a5,a5,1
10001f78:	0a078463          	beqz	a5,10002020 <main+0x10bc>
10001f7c:	01e00793          	li	a5,30
10001f80:	fef40723          	sb	a5,-18(s0)
10001f84:	0940006f          	j	10002018 <main+0x10b4>
10001f88:	fee44783          	lbu	a5,-18(s0)
10001f8c:	ff040713          	addi	a4,s0,-16
10001f90:	00f707b3          	add	a5,a4,a5
10001f94:	fc87c783          	lbu	a5,-56(a5)
10001f98:	01879713          	slli	a4,a5,0x18
10001f9c:	41875713          	srai	a4,a4,0x18
10001fa0:	fee44783          	lbu	a5,-18(s0)
10001fa4:	ff040693          	addi	a3,s0,-16
10001fa8:	00f687b3          	add	a5,a3,a5
10001fac:	fc87c783          	lbu	a5,-56(a5)
10001fb0:	00179793          	slli	a5,a5,0x1
10001fb4:	01879693          	slli	a3,a5,0x18
10001fb8:	4186d693          	srai	a3,a3,0x18
10001fbc:	fee44783          	lbu	a5,-18(s0)
10001fc0:	fff78793          	addi	a5,a5,-1
10001fc4:	ff040613          	addi	a2,s0,-16
10001fc8:	00f607b3          	add	a5,a2,a5
10001fcc:	fc87c783          	lbu	a5,-56(a5)
10001fd0:	0077d793          	srli	a5,a5,0x7
10001fd4:	0ff7f793          	andi	a5,a5,255
10001fd8:	01879793          	slli	a5,a5,0x18
10001fdc:	4187d793          	srai	a5,a5,0x18
10001fe0:	00f6e7b3          	or	a5,a3,a5
10001fe4:	01879793          	slli	a5,a5,0x18
10001fe8:	4187d793          	srai	a5,a5,0x18
10001fec:	00f767b3          	or	a5,a4,a5
10001ff0:	01879713          	slli	a4,a5,0x18
10001ff4:	41875713          	srai	a4,a4,0x18
10001ff8:	fee44783          	lbu	a5,-18(s0)
10001ffc:	0ff77713          	andi	a4,a4,255
10002000:	ff040693          	addi	a3,s0,-16
10002004:	00f687b3          	add	a5,a3,a5
10002008:	fce78423          	sb	a4,-56(a5)
1000200c:	fee44783          	lbu	a5,-18(s0)
10002010:	fff78793          	addi	a5,a5,-1
10002014:	fef40723          	sb	a5,-18(s0)
10002018:	fee44783          	lbu	a5,-18(s0)
1000201c:	f60796e3          	bnez	a5,10001f88 <main+0x1024>
10002020:	fb944783          	lbu	a5,-71(s0)
10002024:	0187e793          	ori	a5,a5,24
10002028:	0ff7f793          	andi	a5,a5,255
1000202c:	faf40ca3          	sb	a5,-71(s0)
10002030:	00100793          	li	a5,1
10002034:	faf40c23          	sb	a5,-72(s0)
10002038:	fef44783          	lbu	a5,-17(s0)
1000203c:	fff78793          	addi	a5,a5,-1
10002040:	fef407a3          	sb	a5,-17(s0)
10002044:	fef44783          	lbu	a5,-17(s0)
10002048:	e80794e3          	bnez	a5,10001ed0 <main+0xf6c>
1000204c:	fb844783          	lbu	a5,-72(s0)
10002050:	00078713          	mv	a4,a5
10002054:	fb944783          	lbu	a5,-71(s0)
10002058:	00879793          	slli	a5,a5,0x8
1000205c:	00f76733          	or	a4,a4,a5
10002060:	260007b7          	lui	a5,0x26000
10002064:	02478793          	addi	a5,a5,36 # 26000024 <_etext+0x15ffd624>
10002068:	00e7a023          	sw	a4,0(a5)
1000206c:	fb944783          	lbu	a5,-71(s0)
10002070:	0057d793          	srli	a5,a5,0x5
10002074:	0ff7f793          	andi	a5,a5,255
10002078:	00078713          	mv	a4,a5
1000207c:	fba44783          	lbu	a5,-70(s0)
10002080:	00379793          	slli	a5,a5,0x3
10002084:	00f76733          	or	a4,a4,a5
10002088:	fbb44783          	lbu	a5,-69(s0)
1000208c:	00b79793          	slli	a5,a5,0xb
10002090:	00f76733          	or	a4,a4,a5
10002094:	260007b7          	lui	a5,0x26000
10002098:	02878793          	addi	a5,a5,40 # 26000028 <_etext+0x15ffd628>
1000209c:	00e7a023          	sw	a4,0(a5)
100020a0:	fbb44783          	lbu	a5,-69(s0)
100020a4:	0027d793          	srli	a5,a5,0x2
100020a8:	0ff7f793          	andi	a5,a5,255
100020ac:	00078713          	mv	a4,a5
100020b0:	fbc44783          	lbu	a5,-68(s0)
100020b4:	00679793          	slli	a5,a5,0x6
100020b8:	00f76733          	or	a4,a4,a5
100020bc:	260007b7          	lui	a5,0x26000
100020c0:	02c78793          	addi	a5,a5,44 # 2600002c <_etext+0x15ffd62c>
100020c4:	00e7a023          	sw	a4,0(a5)
100020c8:	fbc44783          	lbu	a5,-68(s0)
100020cc:	0077d793          	srli	a5,a5,0x7
100020d0:	0ff7f793          	andi	a5,a5,255
100020d4:	00078713          	mv	a4,a5
100020d8:	fbd44783          	lbu	a5,-67(s0)
100020dc:	00179793          	slli	a5,a5,0x1
100020e0:	00f76733          	or	a4,a4,a5
100020e4:	fbe44783          	lbu	a5,-66(s0)
100020e8:	00979793          	slli	a5,a5,0x9
100020ec:	00f76733          	or	a4,a4,a5
100020f0:	260007b7          	lui	a5,0x26000
100020f4:	03078793          	addi	a5,a5,48 # 26000030 <_etext+0x15ffd630>
100020f8:	00e7a023          	sw	a4,0(a5)
100020fc:	fbe44783          	lbu	a5,-66(s0)
10002100:	0047d793          	srli	a5,a5,0x4
10002104:	0ff7f793          	andi	a5,a5,255
10002108:	00078713          	mv	a4,a5
1000210c:	fbf44783          	lbu	a5,-65(s0)
10002110:	00479793          	slli	a5,a5,0x4
10002114:	00f76733          	or	a4,a4,a5
10002118:	fc044783          	lbu	a5,-64(s0)
1000211c:	00c79793          	slli	a5,a5,0xc
10002120:	00f76733          	or	a4,a4,a5
10002124:	260007b7          	lui	a5,0x26000
10002128:	03478793          	addi	a5,a5,52 # 26000034 <_etext+0x15ffd634>
1000212c:	00e7a023          	sw	a4,0(a5)
10002130:	fc044783          	lbu	a5,-64(s0)
10002134:	0017d793          	srli	a5,a5,0x1
10002138:	0ff7f793          	andi	a5,a5,255
1000213c:	00078713          	mv	a4,a5
10002140:	fc144783          	lbu	a5,-63(s0)
10002144:	00779793          	slli	a5,a5,0x7
10002148:	00f76733          	or	a4,a4,a5
1000214c:	260007b7          	lui	a5,0x26000
10002150:	03878793          	addi	a5,a5,56 # 26000038 <_etext+0x15ffd638>
10002154:	00e7a023          	sw	a4,0(a5)
10002158:	fc144783          	lbu	a5,-63(s0)
1000215c:	0067d793          	srli	a5,a5,0x6
10002160:	0ff7f793          	andi	a5,a5,255
10002164:	00078713          	mv	a4,a5
10002168:	fc244783          	lbu	a5,-62(s0)
1000216c:	00279793          	slli	a5,a5,0x2
10002170:	00f76733          	or	a4,a4,a5
10002174:	fc344783          	lbu	a5,-61(s0)
10002178:	00a79793          	slli	a5,a5,0xa
1000217c:	00f76733          	or	a4,a4,a5
10002180:	260007b7          	lui	a5,0x26000
10002184:	03c78793          	addi	a5,a5,60 # 2600003c <_etext+0x15ffd63c>
10002188:	00e7a023          	sw	a4,0(a5)
1000218c:	fc344783          	lbu	a5,-61(s0)
10002190:	0037d793          	srli	a5,a5,0x3
10002194:	0ff7f793          	andi	a5,a5,255
10002198:	00078713          	mv	a4,a5
1000219c:	fc444783          	lbu	a5,-60(s0)
100021a0:	00579793          	slli	a5,a5,0x5
100021a4:	00f76733          	or	a4,a4,a5
100021a8:	260007b7          	lui	a5,0x26000
100021ac:	04078793          	addi	a5,a5,64 # 26000040 <_etext+0x15ffd640>
100021b0:	00e7a023          	sw	a4,0(a5)
100021b4:	fc544783          	lbu	a5,-59(s0)
100021b8:	00078713          	mv	a4,a5
100021bc:	fc644783          	lbu	a5,-58(s0)
100021c0:	00879793          	slli	a5,a5,0x8
100021c4:	00f76733          	or	a4,a4,a5
100021c8:	260007b7          	lui	a5,0x26000
100021cc:	04478793          	addi	a5,a5,68 # 26000044 <_etext+0x15ffd644>
100021d0:	00e7a023          	sw	a4,0(a5)
100021d4:	fc644783          	lbu	a5,-58(s0)
100021d8:	0057d793          	srli	a5,a5,0x5
100021dc:	0ff7f793          	andi	a5,a5,255
100021e0:	00078713          	mv	a4,a5
100021e4:	fc744783          	lbu	a5,-57(s0)
100021e8:	00379793          	slli	a5,a5,0x3
100021ec:	00f76733          	or	a4,a4,a5
100021f0:	fc844783          	lbu	a5,-56(s0)
100021f4:	00b79793          	slli	a5,a5,0xb
100021f8:	00f76733          	or	a4,a4,a5
100021fc:	260007b7          	lui	a5,0x26000
10002200:	04878793          	addi	a5,a5,72 # 26000048 <_etext+0x15ffd648>
10002204:	00e7a023          	sw	a4,0(a5)
10002208:	fc844783          	lbu	a5,-56(s0)
1000220c:	0027d793          	srli	a5,a5,0x2
10002210:	0ff7f793          	andi	a5,a5,255
10002214:	00078713          	mv	a4,a5
10002218:	fc944783          	lbu	a5,-55(s0)
1000221c:	00679793          	slli	a5,a5,0x6
10002220:	00f76733          	or	a4,a4,a5
10002224:	260007b7          	lui	a5,0x26000
10002228:	04c78793          	addi	a5,a5,76 # 2600004c <_etext+0x15ffd64c>
1000222c:	00e7a023          	sw	a4,0(a5)
10002230:	fc944783          	lbu	a5,-55(s0)
10002234:	0077d793          	srli	a5,a5,0x7
10002238:	0ff7f793          	andi	a5,a5,255
1000223c:	00078713          	mv	a4,a5
10002240:	fca44783          	lbu	a5,-54(s0)
10002244:	00179793          	slli	a5,a5,0x1
10002248:	00f76733          	or	a4,a4,a5
1000224c:	fcb44783          	lbu	a5,-53(s0)
10002250:	00979793          	slli	a5,a5,0x9
10002254:	00f76733          	or	a4,a4,a5
10002258:	260007b7          	lui	a5,0x26000
1000225c:	05078793          	addi	a5,a5,80 # 26000050 <_etext+0x15ffd650>
10002260:	00e7a023          	sw	a4,0(a5)
10002264:	fcb44783          	lbu	a5,-53(s0)
10002268:	0047d793          	srli	a5,a5,0x4
1000226c:	0ff7f793          	andi	a5,a5,255
10002270:	00078713          	mv	a4,a5
10002274:	fcc44783          	lbu	a5,-52(s0)
10002278:	00479793          	slli	a5,a5,0x4
1000227c:	00f76733          	or	a4,a4,a5
10002280:	fcd44783          	lbu	a5,-51(s0)
10002284:	00c79793          	slli	a5,a5,0xc
10002288:	00f76733          	or	a4,a4,a5
1000228c:	260007b7          	lui	a5,0x26000
10002290:	05478793          	addi	a5,a5,84 # 26000054 <_etext+0x15ffd654>
10002294:	00e7a023          	sw	a4,0(a5)
10002298:	fcd44783          	lbu	a5,-51(s0)
1000229c:	0017d793          	srli	a5,a5,0x1
100022a0:	0ff7f793          	andi	a5,a5,255
100022a4:	00078713          	mv	a4,a5
100022a8:	fce44783          	lbu	a5,-50(s0)
100022ac:	00779793          	slli	a5,a5,0x7
100022b0:	00f76733          	or	a4,a4,a5
100022b4:	260007b7          	lui	a5,0x26000
100022b8:	05878793          	addi	a5,a5,88 # 26000058 <_etext+0x15ffd658>
100022bc:	00e7a023          	sw	a4,0(a5)
100022c0:	fce44783          	lbu	a5,-50(s0)
100022c4:	0067d793          	srli	a5,a5,0x6
100022c8:	0ff7f793          	andi	a5,a5,255
100022cc:	00078713          	mv	a4,a5
100022d0:	fcf44783          	lbu	a5,-49(s0)
100022d4:	00279793          	slli	a5,a5,0x2
100022d8:	00f76733          	or	a4,a4,a5
100022dc:	fd044783          	lbu	a5,-48(s0)
100022e0:	00a79793          	slli	a5,a5,0xa
100022e4:	00f76733          	or	a4,a4,a5
100022e8:	260007b7          	lui	a5,0x26000
100022ec:	05c78793          	addi	a5,a5,92 # 2600005c <_etext+0x15ffd65c>
100022f0:	00e7a023          	sw	a4,0(a5)
100022f4:	fd044783          	lbu	a5,-48(s0)
100022f8:	0037d793          	srli	a5,a5,0x3
100022fc:	0ff7f793          	andi	a5,a5,255
10002300:	00078713          	mv	a4,a5
10002304:	fd144783          	lbu	a5,-47(s0)
10002308:	00579793          	slli	a5,a5,0x5
1000230c:	00f76733          	or	a4,a4,a5
10002310:	260007b7          	lui	a5,0x26000
10002314:	06078793          	addi	a5,a5,96 # 26000060 <_etext+0x15ffd660>
10002318:	00e7a023          	sw	a4,0(a5)
1000231c:	fd244783          	lbu	a5,-46(s0)
10002320:	00078713          	mv	a4,a5
10002324:	fd344783          	lbu	a5,-45(s0)
10002328:	00879793          	slli	a5,a5,0x8
1000232c:	00f76733          	or	a4,a4,a5
10002330:	260007b7          	lui	a5,0x26000
10002334:	06478793          	addi	a5,a5,100 # 26000064 <_etext+0x15ffd664>
10002338:	00e7a023          	sw	a4,0(a5)
1000233c:	fd344783          	lbu	a5,-45(s0)
10002340:	0057d793          	srli	a5,a5,0x5
10002344:	0ff7f793          	andi	a5,a5,255
10002348:	00078713          	mv	a4,a5
1000234c:	fd444783          	lbu	a5,-44(s0)
10002350:	00379793          	slli	a5,a5,0x3
10002354:	00f76733          	or	a4,a4,a5
10002358:	fd544783          	lbu	a5,-43(s0)
1000235c:	00b79793          	slli	a5,a5,0xb
10002360:	00f76733          	or	a4,a4,a5
10002364:	260007b7          	lui	a5,0x26000
10002368:	06878793          	addi	a5,a5,104 # 26000068 <_etext+0x15ffd668>
1000236c:	00e7a023          	sw	a4,0(a5)
10002370:	fd544783          	lbu	a5,-43(s0)
10002374:	0027d793          	srli	a5,a5,0x2
10002378:	0ff7f793          	andi	a5,a5,255
1000237c:	00078713          	mv	a4,a5
10002380:	fd644783          	lbu	a5,-42(s0)
10002384:	00679793          	slli	a5,a5,0x6
10002388:	00f76733          	or	a4,a4,a5
1000238c:	260007b7          	lui	a5,0x26000
10002390:	06c78793          	addi	a5,a5,108 # 2600006c <_etext+0x15ffd66c>
10002394:	00e7a023          	sw	a4,0(a5)
10002398:	fe040723          	sb	zero,-18(s0)
1000239c:	0200006f          	j	100023bc <main+0x1458>
100023a0:	fee44783          	lbu	a5,-18(s0)
100023a4:	ff040713          	addi	a4,s0,-16
100023a8:	00f707b3          	add	a5,a4,a5
100023ac:	fc078423          	sb	zero,-56(a5)
100023b0:	fee44783          	lbu	a5,-18(s0)
100023b4:	00178793          	addi	a5,a5,1
100023b8:	fef40723          	sb	a5,-18(s0)
100023bc:	fee44703          	lbu	a4,-18(s0)
100023c0:	01e00793          	li	a5,30
100023c4:	fce7fee3          	bgeu	a5,a4,100023a0 <main+0x143c>
100023c8:	01300793          	li	a5,19
100023cc:	fef407a3          	sb	a5,-17(s0)
100023d0:	1780006f          	j	10002548 <main+0x15e4>
100023d4:	01d00793          	li	a5,29
100023d8:	fef40723          	sb	a5,-18(s0)
100023dc:	0740006f          	j	10002450 <main+0x14ec>
100023e0:	fee44783          	lbu	a5,-18(s0)
100023e4:	ff040713          	addi	a4,s0,-16
100023e8:	00f707b3          	add	a5,a4,a5
100023ec:	fc87c783          	lbu	a5,-56(a5)
100023f0:	00479793          	slli	a5,a5,0x4
100023f4:	01879713          	slli	a4,a5,0x18
100023f8:	41875713          	srai	a4,a4,0x18
100023fc:	fee44783          	lbu	a5,-18(s0)
10002400:	fff78793          	addi	a5,a5,-1
10002404:	ff040693          	addi	a3,s0,-16
10002408:	00f687b3          	add	a5,a3,a5
1000240c:	fc87c783          	lbu	a5,-56(a5)
10002410:	0047d793          	srli	a5,a5,0x4
10002414:	0ff7f793          	andi	a5,a5,255
10002418:	01879793          	slli	a5,a5,0x18
1000241c:	4187d793          	srai	a5,a5,0x18
10002420:	00f767b3          	or	a5,a4,a5
10002424:	01879713          	slli	a4,a5,0x18
10002428:	41875713          	srai	a4,a4,0x18
1000242c:	fee44783          	lbu	a5,-18(s0)
10002430:	00178793          	addi	a5,a5,1
10002434:	0ff77713          	andi	a4,a4,255
10002438:	ff040693          	addi	a3,s0,-16
1000243c:	00f687b3          	add	a5,a3,a5
10002440:	fce78423          	sb	a4,-56(a5)
10002444:	fee44783          	lbu	a5,-18(s0)
10002448:	fff78793          	addi	a5,a5,-1
1000244c:	fef40723          	sb	a5,-18(s0)
10002450:	fee44783          	lbu	a5,-18(s0)
10002454:	f80796e3          	bnez	a5,100023e0 <main+0x147c>
10002458:	fb844783          	lbu	a5,-72(s0)
1000245c:	00479793          	slli	a5,a5,0x4
10002460:	0ff7f793          	andi	a5,a5,255
10002464:	faf40ca3          	sb	a5,-71(s0)
10002468:	fa040c23          	sb	zero,-72(s0)
1000246c:	fef44783          	lbu	a5,-17(s0)
10002470:	fe042703          	lw	a4,-32(s0)
10002474:	40f757b3          	sra	a5,a4,a5
10002478:	0017f793          	andi	a5,a5,1
1000247c:	0a078463          	beqz	a5,10002524 <main+0x15c0>
10002480:	01e00793          	li	a5,30
10002484:	fef40723          	sb	a5,-18(s0)
10002488:	0940006f          	j	1000251c <main+0x15b8>
1000248c:	fee44783          	lbu	a5,-18(s0)
10002490:	ff040713          	addi	a4,s0,-16
10002494:	00f707b3          	add	a5,a4,a5
10002498:	fc87c783          	lbu	a5,-56(a5)
1000249c:	01879713          	slli	a4,a5,0x18
100024a0:	41875713          	srai	a4,a4,0x18
100024a4:	fee44783          	lbu	a5,-18(s0)
100024a8:	ff040693          	addi	a3,s0,-16
100024ac:	00f687b3          	add	a5,a3,a5
100024b0:	fc87c783          	lbu	a5,-56(a5)
100024b4:	00179793          	slli	a5,a5,0x1
100024b8:	01879693          	slli	a3,a5,0x18
100024bc:	4186d693          	srai	a3,a3,0x18
100024c0:	fee44783          	lbu	a5,-18(s0)
100024c4:	fff78793          	addi	a5,a5,-1
100024c8:	ff040613          	addi	a2,s0,-16
100024cc:	00f607b3          	add	a5,a2,a5
100024d0:	fc87c783          	lbu	a5,-56(a5)
100024d4:	0077d793          	srli	a5,a5,0x7
100024d8:	0ff7f793          	andi	a5,a5,255
100024dc:	01879793          	slli	a5,a5,0x18
100024e0:	4187d793          	srai	a5,a5,0x18
100024e4:	00f6e7b3          	or	a5,a3,a5
100024e8:	01879793          	slli	a5,a5,0x18
100024ec:	4187d793          	srai	a5,a5,0x18
100024f0:	00f767b3          	or	a5,a4,a5
100024f4:	01879713          	slli	a4,a5,0x18
100024f8:	41875713          	srai	a4,a4,0x18
100024fc:	fee44783          	lbu	a5,-18(s0)
10002500:	0ff77713          	andi	a4,a4,255
10002504:	ff040693          	addi	a3,s0,-16
10002508:	00f687b3          	add	a5,a3,a5
1000250c:	fce78423          	sb	a4,-56(a5)
10002510:	fee44783          	lbu	a5,-18(s0)
10002514:	fff78793          	addi	a5,a5,-1
10002518:	fef40723          	sb	a5,-18(s0)
1000251c:	fee44783          	lbu	a5,-18(s0)
10002520:	f60796e3          	bnez	a5,1000248c <main+0x1528>
10002524:	fb944783          	lbu	a5,-71(s0)
10002528:	0187e793          	ori	a5,a5,24
1000252c:	0ff7f793          	andi	a5,a5,255
10002530:	faf40ca3          	sb	a5,-71(s0)
10002534:	00100793          	li	a5,1
10002538:	faf40c23          	sb	a5,-72(s0)
1000253c:	fef44783          	lbu	a5,-17(s0)
10002540:	fff78793          	addi	a5,a5,-1
10002544:	fef407a3          	sb	a5,-17(s0)
10002548:	fef44783          	lbu	a5,-17(s0)
1000254c:	e80794e3          	bnez	a5,100023d4 <main+0x1470>
10002550:	fb844783          	lbu	a5,-72(s0)
10002554:	00078713          	mv	a4,a5
10002558:	fb944783          	lbu	a5,-71(s0)
1000255c:	00879793          	slli	a5,a5,0x8
10002560:	00f76733          	or	a4,a4,a5
10002564:	260007b7          	lui	a5,0x26000
10002568:	0b878793          	addi	a5,a5,184 # 260000b8 <_etext+0x15ffd6b8>
1000256c:	00e7a023          	sw	a4,0(a5)
10002570:	fb944783          	lbu	a5,-71(s0)
10002574:	0057d793          	srli	a5,a5,0x5
10002578:	0ff7f793          	andi	a5,a5,255
1000257c:	00078713          	mv	a4,a5
10002580:	fba44783          	lbu	a5,-70(s0)
10002584:	00379793          	slli	a5,a5,0x3
10002588:	00f76733          	or	a4,a4,a5
1000258c:	fbb44783          	lbu	a5,-69(s0)
10002590:	00b79793          	slli	a5,a5,0xb
10002594:	00f76733          	or	a4,a4,a5
10002598:	260007b7          	lui	a5,0x26000
1000259c:	0b478793          	addi	a5,a5,180 # 260000b4 <_etext+0x15ffd6b4>
100025a0:	00e7a023          	sw	a4,0(a5)
100025a4:	fbb44783          	lbu	a5,-69(s0)
100025a8:	0027d793          	srli	a5,a5,0x2
100025ac:	0ff7f793          	andi	a5,a5,255
100025b0:	00078713          	mv	a4,a5
100025b4:	fbc44783          	lbu	a5,-68(s0)
100025b8:	00679793          	slli	a5,a5,0x6
100025bc:	00f76733          	or	a4,a4,a5
100025c0:	260007b7          	lui	a5,0x26000
100025c4:	0b078793          	addi	a5,a5,176 # 260000b0 <_etext+0x15ffd6b0>
100025c8:	00e7a023          	sw	a4,0(a5)
100025cc:	fbc44783          	lbu	a5,-68(s0)
100025d0:	0077d793          	srli	a5,a5,0x7
100025d4:	0ff7f793          	andi	a5,a5,255
100025d8:	00078713          	mv	a4,a5
100025dc:	fbd44783          	lbu	a5,-67(s0)
100025e0:	00179793          	slli	a5,a5,0x1
100025e4:	00f76733          	or	a4,a4,a5
100025e8:	fbe44783          	lbu	a5,-66(s0)
100025ec:	00979793          	slli	a5,a5,0x9
100025f0:	00f76733          	or	a4,a4,a5
100025f4:	260007b7          	lui	a5,0x26000
100025f8:	0ac78793          	addi	a5,a5,172 # 260000ac <_etext+0x15ffd6ac>
100025fc:	00e7a023          	sw	a4,0(a5)
10002600:	fbe44783          	lbu	a5,-66(s0)
10002604:	0047d793          	srli	a5,a5,0x4
10002608:	0ff7f793          	andi	a5,a5,255
1000260c:	00078713          	mv	a4,a5
10002610:	fbf44783          	lbu	a5,-65(s0)
10002614:	00479793          	slli	a5,a5,0x4
10002618:	00f76733          	or	a4,a4,a5
1000261c:	fc044783          	lbu	a5,-64(s0)
10002620:	00c79793          	slli	a5,a5,0xc
10002624:	00f76733          	or	a4,a4,a5
10002628:	260007b7          	lui	a5,0x26000
1000262c:	0a878793          	addi	a5,a5,168 # 260000a8 <_etext+0x15ffd6a8>
10002630:	00e7a023          	sw	a4,0(a5)
10002634:	fc044783          	lbu	a5,-64(s0)
10002638:	0017d793          	srli	a5,a5,0x1
1000263c:	0ff7f793          	andi	a5,a5,255
10002640:	00078713          	mv	a4,a5
10002644:	fc144783          	lbu	a5,-63(s0)
10002648:	00779793          	slli	a5,a5,0x7
1000264c:	00f76733          	or	a4,a4,a5
10002650:	260007b7          	lui	a5,0x26000
10002654:	0a478793          	addi	a5,a5,164 # 260000a4 <_etext+0x15ffd6a4>
10002658:	00e7a023          	sw	a4,0(a5)
1000265c:	fc144783          	lbu	a5,-63(s0)
10002660:	0067d793          	srli	a5,a5,0x6
10002664:	0ff7f793          	andi	a5,a5,255
10002668:	00078713          	mv	a4,a5
1000266c:	fc244783          	lbu	a5,-62(s0)
10002670:	00279793          	slli	a5,a5,0x2
10002674:	00f76733          	or	a4,a4,a5
10002678:	fc344783          	lbu	a5,-61(s0)
1000267c:	00a79793          	slli	a5,a5,0xa
10002680:	00f76733          	or	a4,a4,a5
10002684:	260007b7          	lui	a5,0x26000
10002688:	0a078793          	addi	a5,a5,160 # 260000a0 <_etext+0x15ffd6a0>
1000268c:	00e7a023          	sw	a4,0(a5)
10002690:	fc344783          	lbu	a5,-61(s0)
10002694:	0037d793          	srli	a5,a5,0x3
10002698:	0ff7f793          	andi	a5,a5,255
1000269c:	00078713          	mv	a4,a5
100026a0:	fc444783          	lbu	a5,-60(s0)
100026a4:	00579793          	slli	a5,a5,0x5
100026a8:	00f76733          	or	a4,a4,a5
100026ac:	260007b7          	lui	a5,0x26000
100026b0:	09c78793          	addi	a5,a5,156 # 2600009c <_etext+0x15ffd69c>
100026b4:	00e7a023          	sw	a4,0(a5)
100026b8:	fc544783          	lbu	a5,-59(s0)
100026bc:	00078713          	mv	a4,a5
100026c0:	fc644783          	lbu	a5,-58(s0)
100026c4:	00879793          	slli	a5,a5,0x8
100026c8:	00f76733          	or	a4,a4,a5
100026cc:	260007b7          	lui	a5,0x26000
100026d0:	09878793          	addi	a5,a5,152 # 26000098 <_etext+0x15ffd698>
100026d4:	00e7a023          	sw	a4,0(a5)
100026d8:	fc644783          	lbu	a5,-58(s0)
100026dc:	0057d793          	srli	a5,a5,0x5
100026e0:	0ff7f793          	andi	a5,a5,255
100026e4:	00078713          	mv	a4,a5
100026e8:	fc744783          	lbu	a5,-57(s0)
100026ec:	00379793          	slli	a5,a5,0x3
100026f0:	00f76733          	or	a4,a4,a5
100026f4:	fc844783          	lbu	a5,-56(s0)
100026f8:	00b79793          	slli	a5,a5,0xb
100026fc:	00f76733          	or	a4,a4,a5
10002700:	260007b7          	lui	a5,0x26000
10002704:	09478793          	addi	a5,a5,148 # 26000094 <_etext+0x15ffd694>
10002708:	00e7a023          	sw	a4,0(a5)
1000270c:	fc844783          	lbu	a5,-56(s0)
10002710:	0027d793          	srli	a5,a5,0x2
10002714:	0ff7f793          	andi	a5,a5,255
10002718:	00078713          	mv	a4,a5
1000271c:	fc944783          	lbu	a5,-55(s0)
10002720:	00679793          	slli	a5,a5,0x6
10002724:	00f76733          	or	a4,a4,a5
10002728:	260007b7          	lui	a5,0x26000
1000272c:	09078793          	addi	a5,a5,144 # 26000090 <_etext+0x15ffd690>
10002730:	00e7a023          	sw	a4,0(a5)
10002734:	fc944783          	lbu	a5,-55(s0)
10002738:	0077d793          	srli	a5,a5,0x7
1000273c:	0ff7f793          	andi	a5,a5,255
10002740:	00078713          	mv	a4,a5
10002744:	fca44783          	lbu	a5,-54(s0)
10002748:	00179793          	slli	a5,a5,0x1
1000274c:	00f76733          	or	a4,a4,a5
10002750:	fcb44783          	lbu	a5,-53(s0)
10002754:	00979793          	slli	a5,a5,0x9
10002758:	00f76733          	or	a4,a4,a5
1000275c:	260007b7          	lui	a5,0x26000
10002760:	08c78793          	addi	a5,a5,140 # 2600008c <_etext+0x15ffd68c>
10002764:	00e7a023          	sw	a4,0(a5)
10002768:	fcb44783          	lbu	a5,-53(s0)
1000276c:	0047d793          	srli	a5,a5,0x4
10002770:	0ff7f793          	andi	a5,a5,255
10002774:	00078713          	mv	a4,a5
10002778:	fcc44783          	lbu	a5,-52(s0)
1000277c:	00479793          	slli	a5,a5,0x4
10002780:	00f76733          	or	a4,a4,a5
10002784:	fcd44783          	lbu	a5,-51(s0)
10002788:	00c79793          	slli	a5,a5,0xc
1000278c:	00f76733          	or	a4,a4,a5
10002790:	260007b7          	lui	a5,0x26000
10002794:	08878793          	addi	a5,a5,136 # 26000088 <_etext+0x15ffd688>
10002798:	00e7a023          	sw	a4,0(a5)
1000279c:	fcd44783          	lbu	a5,-51(s0)
100027a0:	0017d793          	srli	a5,a5,0x1
100027a4:	0ff7f793          	andi	a5,a5,255
100027a8:	00078713          	mv	a4,a5
100027ac:	fce44783          	lbu	a5,-50(s0)
100027b0:	00779793          	slli	a5,a5,0x7
100027b4:	00f76733          	or	a4,a4,a5
100027b8:	260007b7          	lui	a5,0x26000
100027bc:	08478793          	addi	a5,a5,132 # 26000084 <_etext+0x15ffd684>
100027c0:	00e7a023          	sw	a4,0(a5)
100027c4:	fce44783          	lbu	a5,-50(s0)
100027c8:	0067d793          	srli	a5,a5,0x6
100027cc:	0ff7f793          	andi	a5,a5,255
100027d0:	00078713          	mv	a4,a5
100027d4:	fcf44783          	lbu	a5,-49(s0)
100027d8:	00279793          	slli	a5,a5,0x2
100027dc:	00f76733          	or	a4,a4,a5
100027e0:	fd044783          	lbu	a5,-48(s0)
100027e4:	00a79793          	slli	a5,a5,0xa
100027e8:	00f76733          	or	a4,a4,a5
100027ec:	260007b7          	lui	a5,0x26000
100027f0:	08078793          	addi	a5,a5,128 # 26000080 <_etext+0x15ffd680>
100027f4:	00e7a023          	sw	a4,0(a5)
100027f8:	fd044783          	lbu	a5,-48(s0)
100027fc:	0037d793          	srli	a5,a5,0x3
10002800:	0ff7f793          	andi	a5,a5,255
10002804:	00078713          	mv	a4,a5
10002808:	fd144783          	lbu	a5,-47(s0)
1000280c:	00579793          	slli	a5,a5,0x5
10002810:	00f76733          	or	a4,a4,a5
10002814:	260007b7          	lui	a5,0x26000
10002818:	07c78793          	addi	a5,a5,124 # 2600007c <_etext+0x15ffd67c>
1000281c:	00e7a023          	sw	a4,0(a5)
10002820:	fd244783          	lbu	a5,-46(s0)
10002824:	00078713          	mv	a4,a5
10002828:	fd344783          	lbu	a5,-45(s0)
1000282c:	00879793          	slli	a5,a5,0x8
10002830:	00f76733          	or	a4,a4,a5
10002834:	260007b7          	lui	a5,0x26000
10002838:	07878793          	addi	a5,a5,120 # 26000078 <_etext+0x15ffd678>
1000283c:	00e7a023          	sw	a4,0(a5)
10002840:	fd344783          	lbu	a5,-45(s0)
10002844:	0057d793          	srli	a5,a5,0x5
10002848:	0ff7f793          	andi	a5,a5,255
1000284c:	00078713          	mv	a4,a5
10002850:	fd444783          	lbu	a5,-44(s0)
10002854:	00379793          	slli	a5,a5,0x3
10002858:	00f76733          	or	a4,a4,a5
1000285c:	fd544783          	lbu	a5,-43(s0)
10002860:	00b79793          	slli	a5,a5,0xb
10002864:	00f76733          	or	a4,a4,a5
10002868:	260007b7          	lui	a5,0x26000
1000286c:	07478793          	addi	a5,a5,116 # 26000074 <_etext+0x15ffd674>
10002870:	00e7a023          	sw	a4,0(a5)
10002874:	fd544783          	lbu	a5,-43(s0)
10002878:	0027d793          	srli	a5,a5,0x2
1000287c:	0ff7f793          	andi	a5,a5,255
10002880:	00078713          	mv	a4,a5
10002884:	fd644783          	lbu	a5,-42(s0)
10002888:	00679793          	slli	a5,a5,0x6
1000288c:	00f76733          	or	a4,a4,a5
10002890:	260007b7          	lui	a5,0x26000
10002894:	07078793          	addi	a5,a5,112 # 26000070 <_etext+0x15ffd670>
10002898:	00e7a023          	sw	a4,0(a5)
1000289c:	260007b7          	lui	a5,0x26000
100028a0:	00100713          	li	a4,1
100028a4:	00e7a023          	sw	a4,0(a5) # 26000000 <_etext+0x15ffd600>
100028a8:	00000013          	nop
100028ac:	260007b7          	lui	a5,0x26000
100028b0:	0007a703          	lw	a4,0(a5) # 26000000 <_etext+0x15ffd600>
100028b4:	00100793          	li	a5,1
100028b8:	fef70ae3          	beq	a4,a5,100028ac <main+0x1948>
100028bc:	d18fe0ef          	jal	ra,10000dd4 <final_configure>
100028c0:	fe042423          	sw	zero,-24(s0)
100028c4:	fe040723          	sb	zero,-18(s0)
100028c8:	03c0006f          	j	10002904 <main+0x19a0>
100028cc:	fee44783          	lbu	a5,-18(s0)
100028d0:	fe042703          	lw	a4,-32(s0)
100028d4:	40f757b3          	sra	a5,a4,a5
100028d8:	0017f793          	andi	a5,a5,1
100028dc:	00078863          	beqz	a5,100028ec <main+0x1988>
100028e0:	fe842783          	lw	a5,-24(s0)
100028e4:	0017e793          	ori	a5,a5,1
100028e8:	fef42423          	sw	a5,-24(s0)
100028ec:	fe842783          	lw	a5,-24(s0)
100028f0:	00179793          	slli	a5,a5,0x1
100028f4:	fef42423          	sw	a5,-24(s0)
100028f8:	fee44783          	lbu	a5,-18(s0)
100028fc:	00178793          	addi	a5,a5,1
10002900:	fef40723          	sb	a5,-18(s0)
10002904:	fee44703          	lbu	a4,-18(s0)
10002908:	01200793          	li	a5,18
1000290c:	fce7f0e3          	bgeu	a5,a4,100028cc <main+0x1968>
10002910:	fe842783          	lw	a5,-24(s0)
10002914:	01279713          	slli	a4,a5,0x12
10002918:	fdc42783          	lw	a5,-36(s0)
1000291c:	00f767b3          	or	a5,a4,a5
10002920:	0017e713          	ori	a4,a5,1
10002924:	260007b7          	lui	a5,0x26000
10002928:	00c78793          	addi	a5,a5,12 # 2600000c <_etext+0x15ffd60c>
1000292c:	00e7a023          	sw	a4,0(a5)
10002930:	fe842783          	lw	a5,-24(s0)
10002934:	40e7d713          	srai	a4,a5,0xe
10002938:	260007b7          	lui	a5,0x26000
1000293c:	01078793          	addi	a5,a5,16 # 26000010 <_etext+0x15ffd610>
10002940:	00e7a023          	sw	a4,0(a5)
10002944:	260007b7          	lui	a5,0x26000
10002948:	00c78793          	addi	a5,a5,12 # 2600000c <_etext+0x15ffd60c>
1000294c:	0007a703          	lw	a4,0(a5)
10002950:	260007b7          	lui	a5,0x26000
10002954:	00c78793          	addi	a5,a5,12 # 2600000c <_etext+0x15ffd60c>
10002958:	ffe77713          	andi	a4,a4,-2
1000295c:	00e7a023          	sw	a4,0(a5)
10002960:	f00037b7          	lui	a5,0xf0003
10002964:	81478793          	addi	a5,a5,-2028 # f0002814 <_etext+0xdffffe14>
10002968:	0007a023          	sw	zero,0(a5)
1000296c:	fe042223          	sw	zero,-28(s0)
10002970:	0100006f          	j	10002980 <main+0x1a1c>
10002974:	fe442783          	lw	a5,-28(s0)
10002978:	00178793          	addi	a5,a5,1
1000297c:	fef42223          	sw	a5,-28(s0)
10002980:	fe442703          	lw	a4,-28(s0)
10002984:	000027b7          	lui	a5,0x2
10002988:	70f78793          	addi	a5,a5,1807 # 270f <_fstack+0x230f>
1000298c:	fee7d4e3          	bge	a5,a4,10002974 <main+0x1a10>
10002990:	f00037b7          	lui	a5,0xf0003
10002994:	81478793          	addi	a5,a5,-2028 # f0002814 <_etext+0xdffffe14>
10002998:	00100713          	li	a4,1
1000299c:	00e7a023          	sw	a4,0(a5)
100029a0:	fe042223          	sw	zero,-28(s0)
100029a4:	0100006f          	j	100029b4 <main+0x1a50>
100029a8:	fe442783          	lw	a5,-28(s0)
100029ac:	00178793          	addi	a5,a5,1
100029b0:	fef42223          	sw	a5,-28(s0)
100029b4:	fe442703          	lw	a4,-28(s0)
100029b8:	000027b7          	lui	a5,0x2
100029bc:	70f78793          	addi	a5,a5,1807 # 270f <_fstack+0x230f>
100029c0:	fee7d4e3          	bge	a5,a4,100029a8 <main+0x1a44>
100029c4:	f9dff06f          	j	10002960 <main+0x19fc>
	...

Disassembly of section .bss:

00000000 <flag>:
	...

Disassembly of section .comment:

00000000 <.comment>:
   0:	3a434347          	fmsub.d	ft6,ft6,ft4,ft7,rmm
   4:	2820                	fld	fs0,80(s0)
   6:	29554e47          	fmsub.s	ft8,fa0,fs5,ft5,rmm
   a:	3820                	fld	fs0,112(s0)
   c:	322e                	fld	ft4,232(sp)
   e:	302e                	fld	ft0,232(sp)
	...
